Archive member included to satisfy reference by file (symbol)

/usr/share/gcc-arm-none-eabi-10.3-2021.10/bin/../lib/gcc/arm-none-eabi/10.3.1/../../../../arm-none-eabi/lib/thumb/v7e-m/nofp/libstdc++_nano.a(atexit_arm.o)
                              CMakeFiles/bootloader.out.dir/src/main.cpp.o (__aeabi_atexit)
/usr/share/gcc-arm-none-eabi-10.3-2021.10/bin/../lib/gcc/arm-none-eabi/10.3.1/thumb/v7e-m/nofp/libgcc.a(unwind-arm.o)
                              CMakeFiles/bootloader.out.dir/src/main.cpp.o (__aeabi_unwind_cpp_pr0)
/usr/share/gcc-arm-none-eabi-10.3-2021.10/bin/../lib/gcc/arm-none-eabi/10.3.1/thumb/v7e-m/nofp/libgcc.a(libunwind.o)
                              /usr/share/gcc-arm-none-eabi-10.3-2021.10/bin/../lib/gcc/arm-none-eabi/10.3.1/thumb/v7e-m/nofp/libgcc.a(unwind-arm.o) (restore_core_regs)
/usr/share/gcc-arm-none-eabi-10.3-2021.10/bin/../lib/gcc/arm-none-eabi/10.3.1/thumb/v7e-m/nofp/libgcc.a(pr-support.o)
                              /usr/share/gcc-arm-none-eabi-10.3-2021.10/bin/../lib/gcc/arm-none-eabi/10.3.1/thumb/v7e-m/nofp/libgcc.a(unwind-arm.o) (__gnu_unwind_execute)
/usr/share/gcc-arm-none-eabi-10.3-2021.10/bin/../lib/gcc/arm-none-eabi/10.3.1/../../../../arm-none-eabi/lib/thumb/v7e-m/nofp/libc_nano.a(lib_a-abort.o)
                              /usr/share/gcc-arm-none-eabi-10.3-2021.10/bin/../lib/gcc/arm-none-eabi/10.3.1/thumb/v7e-m/nofp/libgcc.a(unwind-arm.o) (abort)
/usr/share/gcc-arm-none-eabi-10.3-2021.10/bin/../lib/gcc/arm-none-eabi/10.3.1/../../../../arm-none-eabi/lib/thumb/v7e-m/nofp/libc_nano.a(lib_a-cxa_atexit.o)
                              /usr/share/gcc-arm-none-eabi-10.3-2021.10/bin/../lib/gcc/arm-none-eabi/10.3.1/../../../../arm-none-eabi/lib/thumb/v7e-m/nofp/libstdc++_nano.a(atexit_arm.o) (__cxa_atexit)
/usr/share/gcc-arm-none-eabi-10.3-2021.10/bin/../lib/gcc/arm-none-eabi/10.3.1/../../../../arm-none-eabi/lib/thumb/v7e-m/nofp/libc_nano.a(lib_a-exit.o)
                              /usr/share/gcc-arm-none-eabi-10.3-2021.10/bin/../lib/gcc/arm-none-eabi/10.3.1/../../../../arm-none-eabi/lib/thumb/v7e-m/nofp/crt0.o (exit)
/usr/share/gcc-arm-none-eabi-10.3-2021.10/bin/../lib/gcc/arm-none-eabi/10.3.1/../../../../arm-none-eabi/lib/thumb/v7e-m/nofp/libc_nano.a(lib_a-impure.o)
                              /usr/share/gcc-arm-none-eabi-10.3-2021.10/bin/../lib/gcc/arm-none-eabi/10.3.1/../../../../arm-none-eabi/lib/thumb/v7e-m/nofp/libc_nano.a(lib_a-exit.o) (_global_impure_ptr)
/usr/share/gcc-arm-none-eabi-10.3-2021.10/bin/../lib/gcc/arm-none-eabi/10.3.1/../../../../arm-none-eabi/lib/thumb/v7e-m/nofp/libc_nano.a(lib_a-init.o)
                              /usr/share/gcc-arm-none-eabi-10.3-2021.10/bin/../lib/gcc/arm-none-eabi/10.3.1/../../../../arm-none-eabi/lib/thumb/v7e-m/nofp/crt0.o (__libc_init_array)
/usr/share/gcc-arm-none-eabi-10.3-2021.10/bin/../lib/gcc/arm-none-eabi/10.3.1/../../../../arm-none-eabi/lib/thumb/v7e-m/nofp/libc_nano.a(lib_a-memcpy-stub.o)
                              /usr/share/gcc-arm-none-eabi-10.3-2021.10/bin/../lib/gcc/arm-none-eabi/10.3.1/thumb/v7e-m/nofp/libgcc.a(unwind-arm.o) (memcpy)
/usr/share/gcc-arm-none-eabi-10.3-2021.10/bin/../lib/gcc/arm-none-eabi/10.3.1/../../../../arm-none-eabi/lib/thumb/v7e-m/nofp/libc_nano.a(lib_a-memset.o)
                              /usr/share/gcc-arm-none-eabi-10.3-2021.10/bin/../lib/gcc/arm-none-eabi/10.3.1/../../../../arm-none-eabi/lib/thumb/v7e-m/nofp/crt0.o (memset)
/usr/share/gcc-arm-none-eabi-10.3-2021.10/bin/../lib/gcc/arm-none-eabi/10.3.1/../../../../arm-none-eabi/lib/thumb/v7e-m/nofp/libc_nano.a(lib_a-on_exit_args.o)
                              /usr/share/gcc-arm-none-eabi-10.3-2021.10/bin/../lib/gcc/arm-none-eabi/10.3.1/../../../../arm-none-eabi/lib/thumb/v7e-m/nofp/libc_nano.a(lib_a-cxa_atexit.o) (__on_exit_args)
/usr/share/gcc-arm-none-eabi-10.3-2021.10/bin/../lib/gcc/arm-none-eabi/10.3.1/../../../../arm-none-eabi/lib/thumb/v7e-m/nofp/libc_nano.a(lib_a-signal.o)
                              /usr/share/gcc-arm-none-eabi-10.3-2021.10/bin/../lib/gcc/arm-none-eabi/10.3.1/../../../../arm-none-eabi/lib/thumb/v7e-m/nofp/libc_nano.a(lib_a-abort.o) (raise)
/usr/share/gcc-arm-none-eabi-10.3-2021.10/bin/../lib/gcc/arm-none-eabi/10.3.1/../../../../arm-none-eabi/lib/thumb/v7e-m/nofp/libc_nano.a(lib_a-signalr.o)
                              /usr/share/gcc-arm-none-eabi-10.3-2021.10/bin/../lib/gcc/arm-none-eabi/10.3.1/../../../../arm-none-eabi/lib/thumb/v7e-m/nofp/libc_nano.a(lib_a-signal.o) (_kill_r)
/usr/share/gcc-arm-none-eabi-10.3-2021.10/bin/../lib/gcc/arm-none-eabi/10.3.1/../../../../arm-none-eabi/lib/thumb/v7e-m/nofp/libc_nano.a(lib_a-nano-mallocr.o)
                              /usr/share/gcc-arm-none-eabi-10.3-2021.10/bin/../lib/gcc/arm-none-eabi/10.3.1/../../../../arm-none-eabi/lib/thumb/v7e-m/nofp/libc_nano.a(lib_a-signal.o) (_malloc_r)
/usr/share/gcc-arm-none-eabi-10.3-2021.10/bin/../lib/gcc/arm-none-eabi/10.3.1/../../../../arm-none-eabi/lib/thumb/v7e-m/nofp/libc_nano.a(lib_a-reent.o)
                              /usr/share/gcc-arm-none-eabi-10.3-2021.10/bin/../lib/gcc/arm-none-eabi/10.3.1/../../../../arm-none-eabi/lib/thumb/v7e-m/nofp/libc_nano.a(lib_a-signalr.o) (errno)
/usr/share/gcc-arm-none-eabi-10.3-2021.10/bin/../lib/gcc/arm-none-eabi/10.3.1/../../../../arm-none-eabi/lib/thumb/v7e-m/nofp/libc_nano.a(lib_a-sbrkr.o)
                              /usr/share/gcc-arm-none-eabi-10.3-2021.10/bin/../lib/gcc/arm-none-eabi/10.3.1/../../../../arm-none-eabi/lib/thumb/v7e-m/nofp/libc_nano.a(lib_a-nano-mallocr.o) (_sbrk_r)
/usr/share/gcc-arm-none-eabi-10.3-2021.10/bin/../lib/gcc/arm-none-eabi/10.3.1/../../../../arm-none-eabi/lib/thumb/v7e-m/nofp/libc_nano.a(lib_a-mlock.o)
                              /usr/share/gcc-arm-none-eabi-10.3-2021.10/bin/../lib/gcc/arm-none-eabi/10.3.1/../../../../arm-none-eabi/lib/thumb/v7e-m/nofp/libc_nano.a(lib_a-nano-mallocr.o) (__malloc_lock)
/usr/share/gcc-arm-none-eabi-10.3-2021.10/bin/../lib/gcc/arm-none-eabi/10.3.1/../../../../arm-none-eabi/lib/thumb/v7e-m/nofp/libc_nano.a(lib_a-nano-freer.o)
                              /usr/share/gcc-arm-none-eabi-10.3-2021.10/bin/../lib/gcc/arm-none-eabi/10.3.1/../../../../arm-none-eabi/lib/thumb/v7e-m/nofp/libc_nano.a(lib_a-reent.o) (_free_r)
/usr/share/gcc-arm-none-eabi-10.3-2021.10/bin/../lib/gcc/arm-none-eabi/10.3.1/../../../../arm-none-eabi/lib/thumb/v7e-m/nofp/libc_nano.a(lib_a-lock.o)
                              /usr/share/gcc-arm-none-eabi-10.3-2021.10/bin/../lib/gcc/arm-none-eabi/10.3.1/../../../../arm-none-eabi/lib/thumb/v7e-m/nofp/libc_nano.a(lib_a-mlock.o) (__retarget_lock_acquire_recursive)
/usr/share/gcc-arm-none-eabi-10.3-2021.10/bin/../lib/gcc/arm-none-eabi/10.3.1/../../../../arm-none-eabi/lib/thumb/v7e-m/nofp/libnosys.a(getpid.o)
                              /usr/share/gcc-arm-none-eabi-10.3-2021.10/bin/../lib/gcc/arm-none-eabi/10.3.1/../../../../arm-none-eabi/lib/thumb/v7e-m/nofp/libc_nano.a(lib_a-signalr.o) (_getpid)
/usr/share/gcc-arm-none-eabi-10.3-2021.10/bin/../lib/gcc/arm-none-eabi/10.3.1/../../../../arm-none-eabi/lib/thumb/v7e-m/nofp/libnosys.a(kill.o)
                              /usr/share/gcc-arm-none-eabi-10.3-2021.10/bin/../lib/gcc/arm-none-eabi/10.3.1/../../../../arm-none-eabi/lib/thumb/v7e-m/nofp/libc_nano.a(lib_a-signalr.o) (_kill)
/usr/share/gcc-arm-none-eabi-10.3-2021.10/bin/../lib/gcc/arm-none-eabi/10.3.1/../../../../arm-none-eabi/lib/thumb/v7e-m/nofp/libnosys.a(sbrk.o)
                              /usr/share/gcc-arm-none-eabi-10.3-2021.10/bin/../lib/gcc/arm-none-eabi/10.3.1/../../../../arm-none-eabi/lib/thumb/v7e-m/nofp/libc_nano.a(lib_a-sbrkr.o) (_sbrk)
/usr/share/gcc-arm-none-eabi-10.3-2021.10/bin/../lib/gcc/arm-none-eabi/10.3.1/../../../../arm-none-eabi/lib/thumb/v7e-m/nofp/libnosys.a(_exit.o)
                              /usr/share/gcc-arm-none-eabi-10.3-2021.10/bin/../lib/gcc/arm-none-eabi/10.3.1/../../../../arm-none-eabi/lib/thumb/v7e-m/nofp/libc_nano.a(lib_a-abort.o) (_exit)

Discarded input sections

 .text          0x0000000000000000        0x0 /usr/share/gcc-arm-none-eabi-10.3-2021.10/bin/../lib/gcc/arm-none-eabi/10.3.1/thumb/v7e-m/nofp/crti.o
 .data          0x0000000000000000        0x0 /usr/share/gcc-arm-none-eabi-10.3-2021.10/bin/../lib/gcc/arm-none-eabi/10.3.1/thumb/v7e-m/nofp/crti.o
 .bss           0x0000000000000000        0x0 /usr/share/gcc-arm-none-eabi-10.3-2021.10/bin/../lib/gcc/arm-none-eabi/10.3.1/thumb/v7e-m/nofp/crti.o
 .rodata        0x0000000000000000       0x24 /usr/share/gcc-arm-none-eabi-10.3-2021.10/bin/../lib/gcc/arm-none-eabi/10.3.1/thumb/v7e-m/nofp/crtbegin.o
 .text          0x0000000000000000       0x7c /usr/share/gcc-arm-none-eabi-10.3-2021.10/bin/../lib/gcc/arm-none-eabi/10.3.1/../../../../arm-none-eabi/lib/thumb/v7e-m/nofp/crt0.o
 .data          0x0000000000000000        0x0 /usr/share/gcc-arm-none-eabi-10.3-2021.10/bin/../lib/gcc/arm-none-eabi/10.3.1/../../../../arm-none-eabi/lib/thumb/v7e-m/nofp/crt0.o
 .bss           0x0000000000000000        0x0 /usr/share/gcc-arm-none-eabi-10.3-2021.10/bin/../lib/gcc/arm-none-eabi/10.3.1/../../../../arm-none-eabi/lib/thumb/v7e-m/nofp/crt0.o
 .ARM.extab     0x0000000000000000        0x0 /usr/share/gcc-arm-none-eabi-10.3-2021.10/bin/../lib/gcc/arm-none-eabi/10.3.1/../../../../arm-none-eabi/lib/thumb/v7e-m/nofp/crt0.o
 .ARM.exidx     0x0000000000000000       0x10 /usr/share/gcc-arm-none-eabi-10.3-2021.10/bin/../lib/gcc/arm-none-eabi/10.3.1/../../../../arm-none-eabi/lib/thumb/v7e-m/nofp/crt0.o
 .ARM.attributes
                0x0000000000000000       0x1c /usr/share/gcc-arm-none-eabi-10.3-2021.10/bin/../lib/gcc/arm-none-eabi/10.3.1/../../../../arm-none-eabi/lib/thumb/v7e-m/nofp/crt0.o
 .text          0x0000000000000000        0x0 CMakeFiles/bootloader.out.dir/stm32f4/dependencies/stm32f4xx_it.c.o
 .data          0x0000000000000000        0x0 CMakeFiles/bootloader.out.dir/stm32f4/dependencies/stm32f4xx_it.c.o
 .bss           0x0000000000000000        0x0 CMakeFiles/bootloader.out.dir/stm32f4/dependencies/stm32f4xx_it.c.o
 .text          0x0000000000000000        0x0 CMakeFiles/bootloader.out.dir/stm32f4/dependencies/system_stm32f4xx.c.o
 .data          0x0000000000000000        0x0 CMakeFiles/bootloader.out.dir/stm32f4/dependencies/system_stm32f4xx.c.o
 .bss           0x0000000000000000        0x0 CMakeFiles/bootloader.out.dir/stm32f4/dependencies/system_stm32f4xx.c.o
 .data.SystemCoreClock
                0x0000000000000000        0x4 CMakeFiles/bootloader.out.dir/stm32f4/dependencies/system_stm32f4xx.c.o
 .data.AHBPrescTable
                0x0000000000000000       0x10 CMakeFiles/bootloader.out.dir/stm32f4/dependencies/system_stm32f4xx.c.o
 .text.SystemCoreClockUpdate
                0x0000000000000000      0x104 CMakeFiles/bootloader.out.dir/stm32f4/dependencies/system_stm32f4xx.c.o
 .text          0x0000000000000000       0x14 CMakeFiles/bootloader.out.dir/stm32f4/startup/startup_stm32f40_41xxx.s.o
 .data          0x0000000000000000        0x0 CMakeFiles/bootloader.out.dir/stm32f4/startup/startup_stm32f40_41xxx.s.o
 .bss           0x0000000000000000        0x0 CMakeFiles/bootloader.out.dir/stm32f4/startup/startup_stm32f40_41xxx.s.o
 .text          0x0000000000000000        0x0 CMakeFiles/bootloader.out.dir/stm32f4/stm32f407/src/peripherals/sys_clock/clock_config.cpp.o
 .data          0x0000000000000000        0x0 CMakeFiles/bootloader.out.dir/stm32f4/stm32f407/src/peripherals/sys_clock/clock_config.cpp.o
 .bss           0x0000000000000000        0x0 CMakeFiles/bootloader.out.dir/stm32f4/stm32f407/src/peripherals/sys_clock/clock_config.cpp.o
 .ARM.extab.text._ZN16custom_libraries12clock_configC2Ev
                0x0000000000000000        0x0 CMakeFiles/bootloader.out.dir/stm32f4/stm32f407/src/peripherals/sys_clock/clock_config.cpp.o
 .ARM.extab.text._ZN16custom_libraries12clock_configD2Ev
                0x0000000000000000        0x0 CMakeFiles/bootloader.out.dir/stm32f4/stm32f407/src/peripherals/sys_clock/clock_config.cpp.o
 .ARM.extab.text._ZN16custom_libraries12clock_config10initializeEv
                0x0000000000000000        0x0 CMakeFiles/bootloader.out.dir/stm32f4/stm32f407/src/peripherals/sys_clock/clock_config.cpp.o
 .text          0x0000000000000000        0x0 CMakeFiles/bootloader.out.dir/stm32f4/stm32f407/src/peripherals/gpio/gpio.cpp.o
 .data          0x0000000000000000        0x0 CMakeFiles/bootloader.out.dir/stm32f4/stm32f407/src/peripherals/gpio/gpio.cpp.o
 .bss           0x0000000000000000        0x0 CMakeFiles/bootloader.out.dir/stm32f4/stm32f407/src/peripherals/gpio/gpio.cpp.o
 .ARM.extab.text._ZN16custom_libraries5_GPIOC2EP12GPIO_TypeDefh
                0x0000000000000000        0x0 CMakeFiles/bootloader.out.dir/stm32f4/stm32f407/src/peripherals/gpio/gpio.cpp.o
 .ARM.extab.text._ZN16custom_libraries5_GPIO8pin_modeENS_4ModeE
                0x0000000000000000        0x0 CMakeFiles/bootloader.out.dir/stm32f4/stm32f407/src/peripherals/gpio/gpio.cpp.o
 .text._ZN16custom_libraries5_GPIO15output_settingsENS_11OUTPUT_TypeENS_12OUTPUT_SpeedE
                0x0000000000000000      0x178 CMakeFiles/bootloader.out.dir/stm32f4/stm32f407/src/peripherals/gpio/gpio.cpp.o
 .ARM.extab.text._ZN16custom_libraries5_GPIO15output_settingsENS_11OUTPUT_TypeENS_12OUTPUT_SpeedE
                0x0000000000000000        0x0 CMakeFiles/bootloader.out.dir/stm32f4/stm32f407/src/peripherals/gpio/gpio.cpp.o
 .ARM.exidx.text._ZN16custom_libraries5_GPIO15output_settingsENS_11OUTPUT_TypeENS_12OUTPUT_SpeedE
                0x0000000000000000        0x8 CMakeFiles/bootloader.out.dir/stm32f4/stm32f407/src/peripherals/gpio/gpio.cpp.o
 .ARM.extab.text._ZN16custom_libraries5_GPIO11input_stateENS_5StateE
                0x0000000000000000        0x0 CMakeFiles/bootloader.out.dir/stm32f4/stm32f407/src/peripherals/gpio/gpio.cpp.o
 .text._ZN16custom_libraries5_GPIO13digital_writeEb
                0x0000000000000000       0x5e CMakeFiles/bootloader.out.dir/stm32f4/stm32f407/src/peripherals/gpio/gpio.cpp.o
 .ARM.extab.text._ZN16custom_libraries5_GPIO13digital_writeEb
                0x0000000000000000        0x0 CMakeFiles/bootloader.out.dir/stm32f4/stm32f407/src/peripherals/gpio/gpio.cpp.o
 .ARM.exidx.text._ZN16custom_libraries5_GPIO13digital_writeEb
                0x0000000000000000        0x8 CMakeFiles/bootloader.out.dir/stm32f4/stm32f407/src/peripherals/gpio/gpio.cpp.o
 .ARM.extab.text._ZNK16custom_libraries5_GPIO12digital_readEv
                0x0000000000000000        0x0 CMakeFiles/bootloader.out.dir/stm32f4/stm32f407/src/peripherals/gpio/gpio.cpp.o
 .text._ZN16custom_libraries5_GPIO6toggleEv
                0x0000000000000000       0x2c CMakeFiles/bootloader.out.dir/stm32f4/stm32f407/src/peripherals/gpio/gpio.cpp.o
 .ARM.extab.text._ZN16custom_libraries5_GPIO6toggleEv
                0x0000000000000000        0x0 CMakeFiles/bootloader.out.dir/stm32f4/stm32f407/src/peripherals/gpio/gpio.cpp.o
 .ARM.exidx.text._ZN16custom_libraries5_GPIO6toggleEv
                0x0000000000000000        0x8 CMakeFiles/bootloader.out.dir/stm32f4/stm32f407/src/peripherals/gpio/gpio.cpp.o
 .ARM.extab.text._ZN16custom_libraries5_GPIOD2Ev
                0x0000000000000000        0x0 CMakeFiles/bootloader.out.dir/stm32f4/stm32f407/src/peripherals/gpio/gpio.cpp.o
 .text          0x0000000000000000        0x0 CMakeFiles/bootloader.out.dir/stm32f4/stm32f407/src/peripherals/usart/usart.cpp.o
 .data          0x0000000000000000        0x0 CMakeFiles/bootloader.out.dir/stm32f4/stm32f407/src/peripherals/usart/usart.cpp.o
 .bss           0x0000000000000000        0x0 CMakeFiles/bootloader.out.dir/stm32f4/stm32f407/src/peripherals/usart/usart.cpp.o
 .ARM.extab.text._ZN16custom_libraries5USARTC2EP13USART_TypeDefP12GPIO_TypeDefhhi
                0x0000000000000000        0x0 CMakeFiles/bootloader.out.dir/stm32f4/stm32f407/src/peripherals/usart/usart.cpp.o
 .ARM.extab.text._ZN16custom_libraries5USART10initializeEv
                0x0000000000000000        0x0 CMakeFiles/bootloader.out.dir/stm32f4/stm32f407/src/peripherals/usart/usart.cpp.o
 .text._ZN16custom_libraries5USART9read_charEv
                0x0000000000000000       0x1e CMakeFiles/bootloader.out.dir/stm32f4/stm32f407/src/peripherals/usart/usart.cpp.o
 .ARM.extab.text._ZN16custom_libraries5USART9read_charEv
                0x0000000000000000        0x0 CMakeFiles/bootloader.out.dir/stm32f4/stm32f407/src/peripherals/usart/usart.cpp.o
 .ARM.exidx.text._ZN16custom_libraries5USART9read_charEv
                0x0000000000000000        0x8 CMakeFiles/bootloader.out.dir/stm32f4/stm32f407/src/peripherals/usart/usart.cpp.o
 .text._ZN16custom_libraries5USART11read_stringEv
                0x0000000000000000       0x42 CMakeFiles/bootloader.out.dir/stm32f4/stm32f407/src/peripherals/usart/usart.cpp.o
 .ARM.extab.text._ZN16custom_libraries5USART11read_stringEv
                0x0000000000000000        0x0 CMakeFiles/bootloader.out.dir/stm32f4/stm32f407/src/peripherals/usart/usart.cpp.o
 .ARM.exidx.text._ZN16custom_libraries5USART11read_stringEv
                0x0000000000000000        0x8 CMakeFiles/bootloader.out.dir/stm32f4/stm32f407/src/peripherals/usart/usart.cpp.o
 .text._ZN16custom_libraries5USART12flush_bufferEv
                0x0000000000000000       0x38 CMakeFiles/bootloader.out.dir/stm32f4/stm32f407/src/peripherals/usart/usart.cpp.o
 .ARM.extab.text._ZN16custom_libraries5USART12flush_bufferEv
                0x0000000000000000        0x0 CMakeFiles/bootloader.out.dir/stm32f4/stm32f407/src/peripherals/usart/usart.cpp.o
 .ARM.exidx.text._ZN16custom_libraries5USART12flush_bufferEv
                0x0000000000000000        0x8 CMakeFiles/bootloader.out.dir/stm32f4/stm32f407/src/peripherals/usart/usart.cpp.o
 .ARM.extab.text._ZN16custom_libraries5USART10print_charEc
                0x0000000000000000        0x0 CMakeFiles/bootloader.out.dir/stm32f4/stm32f407/src/peripherals/usart/usart.cpp.o
 .text._ZN16custom_libraries5USART5printEPc
                0x0000000000000000       0x2e CMakeFiles/bootloader.out.dir/stm32f4/stm32f407/src/peripherals/usart/usart.cpp.o
 .ARM.extab.text._ZN16custom_libraries5USART5printEPc
                0x0000000000000000        0x0 CMakeFiles/bootloader.out.dir/stm32f4/stm32f407/src/peripherals/usart/usart.cpp.o
 .ARM.exidx.text._ZN16custom_libraries5USART5printEPc
                0x0000000000000000        0x8 CMakeFiles/bootloader.out.dir/stm32f4/stm32f407/src/peripherals/usart/usart.cpp.o
 .ARM.extab.text._ZN16custom_libraries5USART7printlnEPc
                0x0000000000000000        0x0 CMakeFiles/bootloader.out.dir/stm32f4/stm32f407/src/peripherals/usart/usart.cpp.o
 .ARM.extab.text._ZN16custom_libraries5USARTD2Ev
                0x0000000000000000        0x0 CMakeFiles/bootloader.out.dir/stm32f4/stm32f407/src/peripherals/usart/usart.cpp.o
 .text          0x0000000000000000        0x0 CMakeFiles/bootloader.out.dir/src/main.cpp.o
 .data          0x0000000000000000        0x0 CMakeFiles/bootloader.out.dir/src/main.cpp.o
 .bss           0x0000000000000000        0x0 CMakeFiles/bootloader.out.dir/src/main.cpp.o
 .ARM.extab.text.main
                0x0000000000000000        0x0 CMakeFiles/bootloader.out.dir/src/main.cpp.o
 .ARM.extab.text._Z25bootloader_uart_read_datav
                0x0000000000000000        0x0 CMakeFiles/bootloader.out.dir/src/main.cpp.o
 .ARM.extab.text._Z41__static_initialization_and_destruction_0ii
                0x0000000000000000        0x0 CMakeFiles/bootloader.out.dir/src/main.cpp.o
 .ARM.extab.text._GLOBAL__sub_I_system_clock
                0x0000000000000000        0x0 CMakeFiles/bootloader.out.dir/src/main.cpp.o
 .text          0x0000000000000000        0x0 /usr/share/gcc-arm-none-eabi-10.3-2021.10/bin/../lib/gcc/arm-none-eabi/10.3.1/../../../../arm-none-eabi/lib/thumb/v7e-m/nofp/libstdc++_nano.a(atexit_arm.o)
 .data          0x0000000000000000        0x0 /usr/share/gcc-arm-none-eabi-10.3-2021.10/bin/../lib/gcc/arm-none-eabi/10.3.1/../../../../arm-none-eabi/lib/thumb/v7e-m/nofp/libstdc++_nano.a(atexit_arm.o)
 .bss           0x0000000000000000        0x0 /usr/share/gcc-arm-none-eabi-10.3-2021.10/bin/../lib/gcc/arm-none-eabi/10.3.1/../../../../arm-none-eabi/lib/thumb/v7e-m/nofp/libstdc++_nano.a(atexit_arm.o)
 .data          0x0000000000000000        0x0 /usr/share/gcc-arm-none-eabi-10.3-2021.10/bin/../lib/gcc/arm-none-eabi/10.3.1/thumb/v7e-m/nofp/libgcc.a(unwind-arm.o)
 .bss           0x0000000000000000        0x0 /usr/share/gcc-arm-none-eabi-10.3-2021.10/bin/../lib/gcc/arm-none-eabi/10.3.1/thumb/v7e-m/nofp/libgcc.a(unwind-arm.o)
 .ARM.extab     0x0000000000000000        0x0 /usr/share/gcc-arm-none-eabi-10.3-2021.10/bin/../lib/gcc/arm-none-eabi/10.3.1/thumb/v7e-m/nofp/libgcc.a(unwind-arm.o)
 .data          0x0000000000000000        0x0 /usr/share/gcc-arm-none-eabi-10.3-2021.10/bin/../lib/gcc/arm-none-eabi/10.3.1/thumb/v7e-m/nofp/libgcc.a(libunwind.o)
 .bss           0x0000000000000000        0x0 /usr/share/gcc-arm-none-eabi-10.3-2021.10/bin/../lib/gcc/arm-none-eabi/10.3.1/thumb/v7e-m/nofp/libgcc.a(libunwind.o)
 .data          0x0000000000000000        0x0 /usr/share/gcc-arm-none-eabi-10.3-2021.10/bin/../lib/gcc/arm-none-eabi/10.3.1/thumb/v7e-m/nofp/libgcc.a(pr-support.o)
 .bss           0x0000000000000000        0x0 /usr/share/gcc-arm-none-eabi-10.3-2021.10/bin/../lib/gcc/arm-none-eabi/10.3.1/thumb/v7e-m/nofp/libgcc.a(pr-support.o)
 .text.unlikely
                0x0000000000000000        0xc /usr/share/gcc-arm-none-eabi-10.3-2021.10/bin/../lib/gcc/arm-none-eabi/10.3.1/thumb/v7e-m/nofp/libgcc.a(pr-support.o)
 .ARM.extab.text.unlikely
                0x0000000000000000        0x0 /usr/share/gcc-arm-none-eabi-10.3-2021.10/bin/../lib/gcc/arm-none-eabi/10.3.1/thumb/v7e-m/nofp/libgcc.a(pr-support.o)
 .ARM.exidx.text.unlikely
                0x0000000000000000       0x10 /usr/share/gcc-arm-none-eabi-10.3-2021.10/bin/../lib/gcc/arm-none-eabi/10.3.1/thumb/v7e-m/nofp/libgcc.a(pr-support.o)
 .text          0x0000000000000000        0x0 /usr/share/gcc-arm-none-eabi-10.3-2021.10/bin/../lib/gcc/arm-none-eabi/10.3.1/../../../../arm-none-eabi/lib/thumb/v7e-m/nofp/libc_nano.a(lib_a-abort.o)
 .data          0x0000000000000000        0x0 /usr/share/gcc-arm-none-eabi-10.3-2021.10/bin/../lib/gcc/arm-none-eabi/10.3.1/../../../../arm-none-eabi/lib/thumb/v7e-m/nofp/libc_nano.a(lib_a-abort.o)
 .bss           0x0000000000000000        0x0 /usr/share/gcc-arm-none-eabi-10.3-2021.10/bin/../lib/gcc/arm-none-eabi/10.3.1/../../../../arm-none-eabi/lib/thumb/v7e-m/nofp/libc_nano.a(lib_a-abort.o)
 .text          0x0000000000000000        0x0 /usr/share/gcc-arm-none-eabi-10.3-2021.10/bin/../lib/gcc/arm-none-eabi/10.3.1/../../../../arm-none-eabi/lib/thumb/v7e-m/nofp/libc_nano.a(lib_a-cxa_atexit.o)
 .data          0x0000000000000000        0x0 /usr/share/gcc-arm-none-eabi-10.3-2021.10/bin/../lib/gcc/arm-none-eabi/10.3.1/../../../../arm-none-eabi/lib/thumb/v7e-m/nofp/libc_nano.a(lib_a-cxa_atexit.o)
 .bss           0x0000000000000000        0x0 /usr/share/gcc-arm-none-eabi-10.3-2021.10/bin/../lib/gcc/arm-none-eabi/10.3.1/../../../../arm-none-eabi/lib/thumb/v7e-m/nofp/libc_nano.a(lib_a-cxa_atexit.o)
 .rodata.__cxa_atexit_dummy
                0x0000000000000000        0x4 /usr/share/gcc-arm-none-eabi-10.3-2021.10/bin/../lib/gcc/arm-none-eabi/10.3.1/../../../../arm-none-eabi/lib/thumb/v7e-m/nofp/libc_nano.a(lib_a-cxa_atexit.o)
 .text          0x0000000000000000        0x0 /usr/share/gcc-arm-none-eabi-10.3-2021.10/bin/../lib/gcc/arm-none-eabi/10.3.1/../../../../arm-none-eabi/lib/thumb/v7e-m/nofp/libc_nano.a(lib_a-exit.o)
 .data          0x0000000000000000        0x0 /usr/share/gcc-arm-none-eabi-10.3-2021.10/bin/../lib/gcc/arm-none-eabi/10.3.1/../../../../arm-none-eabi/lib/thumb/v7e-m/nofp/libc_nano.a(lib_a-exit.o)
 .bss           0x0000000000000000        0x0 /usr/share/gcc-arm-none-eabi-10.3-2021.10/bin/../lib/gcc/arm-none-eabi/10.3.1/../../../../arm-none-eabi/lib/thumb/v7e-m/nofp/libc_nano.a(lib_a-exit.o)
 .text.exit     0x0000000000000000       0x28 /usr/share/gcc-arm-none-eabi-10.3-2021.10/bin/../lib/gcc/arm-none-eabi/10.3.1/../../../../arm-none-eabi/lib/thumb/v7e-m/nofp/libc_nano.a(lib_a-exit.o)
 .debug_frame   0x0000000000000000       0x28 /usr/share/gcc-arm-none-eabi-10.3-2021.10/bin/../lib/gcc/arm-none-eabi/10.3.1/../../../../arm-none-eabi/lib/thumb/v7e-m/nofp/libc_nano.a(lib_a-exit.o)
 .ARM.attributes
                0x0000000000000000       0x2e /usr/share/gcc-arm-none-eabi-10.3-2021.10/bin/../lib/gcc/arm-none-eabi/10.3.1/../../../../arm-none-eabi/lib/thumb/v7e-m/nofp/libc_nano.a(lib_a-exit.o)
 .text          0x0000000000000000        0x0 /usr/share/gcc-arm-none-eabi-10.3-2021.10/bin/../lib/gcc/arm-none-eabi/10.3.1/../../../../arm-none-eabi/lib/thumb/v7e-m/nofp/libc_nano.a(lib_a-impure.o)
 .data          0x0000000000000000        0x0 /usr/share/gcc-arm-none-eabi-10.3-2021.10/bin/../lib/gcc/arm-none-eabi/10.3.1/../../../../arm-none-eabi/lib/thumb/v7e-m/nofp/libc_nano.a(lib_a-impure.o)
 .bss           0x0000000000000000        0x0 /usr/share/gcc-arm-none-eabi-10.3-2021.10/bin/../lib/gcc/arm-none-eabi/10.3.1/../../../../arm-none-eabi/lib/thumb/v7e-m/nofp/libc_nano.a(lib_a-impure.o)
 .rodata._global_impure_ptr
                0x0000000000000000        0x4 /usr/share/gcc-arm-none-eabi-10.3-2021.10/bin/../lib/gcc/arm-none-eabi/10.3.1/../../../../arm-none-eabi/lib/thumb/v7e-m/nofp/libc_nano.a(lib_a-impure.o)
 .text          0x0000000000000000        0x0 /usr/share/gcc-arm-none-eabi-10.3-2021.10/bin/../lib/gcc/arm-none-eabi/10.3.1/../../../../arm-none-eabi/lib/thumb/v7e-m/nofp/libc_nano.a(lib_a-init.o)
 .data          0x0000000000000000        0x0 /usr/share/gcc-arm-none-eabi-10.3-2021.10/bin/../lib/gcc/arm-none-eabi/10.3.1/../../../../arm-none-eabi/lib/thumb/v7e-m/nofp/libc_nano.a(lib_a-init.o)
 .bss           0x0000000000000000        0x0 /usr/share/gcc-arm-none-eabi-10.3-2021.10/bin/../lib/gcc/arm-none-eabi/10.3.1/../../../../arm-none-eabi/lib/thumb/v7e-m/nofp/libc_nano.a(lib_a-init.o)
 .text          0x0000000000000000        0x0 /usr/share/gcc-arm-none-eabi-10.3-2021.10/bin/../lib/gcc/arm-none-eabi/10.3.1/../../../../arm-none-eabi/lib/thumb/v7e-m/nofp/libc_nano.a(lib_a-memcpy-stub.o)
 .data          0x0000000000000000        0x0 /usr/share/gcc-arm-none-eabi-10.3-2021.10/bin/../lib/gcc/arm-none-eabi/10.3.1/../../../../arm-none-eabi/lib/thumb/v7e-m/nofp/libc_nano.a(lib_a-memcpy-stub.o)
 .bss           0x0000000000000000        0x0 /usr/share/gcc-arm-none-eabi-10.3-2021.10/bin/../lib/gcc/arm-none-eabi/10.3.1/../../../../arm-none-eabi/lib/thumb/v7e-m/nofp/libc_nano.a(lib_a-memcpy-stub.o)
 .text          0x0000000000000000        0x0 /usr/share/gcc-arm-none-eabi-10.3-2021.10/bin/../lib/gcc/arm-none-eabi/10.3.1/../../../../arm-none-eabi/lib/thumb/v7e-m/nofp/libc_nano.a(lib_a-memset.o)
 .data          0x0000000000000000        0x0 /usr/share/gcc-arm-none-eabi-10.3-2021.10/bin/../lib/gcc/arm-none-eabi/10.3.1/../../../../arm-none-eabi/lib/thumb/v7e-m/nofp/libc_nano.a(lib_a-memset.o)
 .bss           0x0000000000000000        0x0 /usr/share/gcc-arm-none-eabi-10.3-2021.10/bin/../lib/gcc/arm-none-eabi/10.3.1/../../../../arm-none-eabi/lib/thumb/v7e-m/nofp/libc_nano.a(lib_a-memset.o)
 .text.memset   0x0000000000000000       0x10 /usr/share/gcc-arm-none-eabi-10.3-2021.10/bin/../lib/gcc/arm-none-eabi/10.3.1/../../../../arm-none-eabi/lib/thumb/v7e-m/nofp/libc_nano.a(lib_a-memset.o)
 .debug_frame   0x0000000000000000       0x20 /usr/share/gcc-arm-none-eabi-10.3-2021.10/bin/../lib/gcc/arm-none-eabi/10.3.1/../../../../arm-none-eabi/lib/thumb/v7e-m/nofp/libc_nano.a(lib_a-memset.o)
 .ARM.attributes
                0x0000000000000000       0x2e /usr/share/gcc-arm-none-eabi-10.3-2021.10/bin/../lib/gcc/arm-none-eabi/10.3.1/../../../../arm-none-eabi/lib/thumb/v7e-m/nofp/libc_nano.a(lib_a-memset.o)
 .text          0x0000000000000000        0x0 /usr/share/gcc-arm-none-eabi-10.3-2021.10/bin/../lib/gcc/arm-none-eabi/10.3.1/../../../../arm-none-eabi/lib/thumb/v7e-m/nofp/libc_nano.a(lib_a-on_exit_args.o)
 .data          0x0000000000000000        0x0 /usr/share/gcc-arm-none-eabi-10.3-2021.10/bin/../lib/gcc/arm-none-eabi/10.3.1/../../../../arm-none-eabi/lib/thumb/v7e-m/nofp/libc_nano.a(lib_a-on_exit_args.o)
 .bss           0x0000000000000000        0x0 /usr/share/gcc-arm-none-eabi-10.3-2021.10/bin/../lib/gcc/arm-none-eabi/10.3.1/../../../../arm-none-eabi/lib/thumb/v7e-m/nofp/libc_nano.a(lib_a-on_exit_args.o)
 .bss._on_exit_args_instance
                0x0000000000000000      0x108 /usr/share/gcc-arm-none-eabi-10.3-2021.10/bin/../lib/gcc/arm-none-eabi/10.3.1/../../../../arm-none-eabi/lib/thumb/v7e-m/nofp/libc_nano.a(lib_a-on_exit_args.o)
 .rodata.__on_exit_args
                0x0000000000000000        0x4 /usr/share/gcc-arm-none-eabi-10.3-2021.10/bin/../lib/gcc/arm-none-eabi/10.3.1/../../../../arm-none-eabi/lib/thumb/v7e-m/nofp/libc_nano.a(lib_a-on_exit_args.o)
 .ARM.attributes
                0x0000000000000000       0x2e /usr/share/gcc-arm-none-eabi-10.3-2021.10/bin/../lib/gcc/arm-none-eabi/10.3.1/../../../../arm-none-eabi/lib/thumb/v7e-m/nofp/libc_nano.a(lib_a-on_exit_args.o)
 .text          0x0000000000000000        0x0 /usr/share/gcc-arm-none-eabi-10.3-2021.10/bin/../lib/gcc/arm-none-eabi/10.3.1/../../../../arm-none-eabi/lib/thumb/v7e-m/nofp/libc_nano.a(lib_a-signal.o)
 .data          0x0000000000000000        0x0 /usr/share/gcc-arm-none-eabi-10.3-2021.10/bin/../lib/gcc/arm-none-eabi/10.3.1/../../../../arm-none-eabi/lib/thumb/v7e-m/nofp/libc_nano.a(lib_a-signal.o)
 .bss           0x0000000000000000        0x0 /usr/share/gcc-arm-none-eabi-10.3-2021.10/bin/../lib/gcc/arm-none-eabi/10.3.1/../../../../arm-none-eabi/lib/thumb/v7e-m/nofp/libc_nano.a(lib_a-signal.o)
 .text._init_signal_r
                0x0000000000000000       0x28 /usr/share/gcc-arm-none-eabi-10.3-2021.10/bin/../lib/gcc/arm-none-eabi/10.3.1/../../../../arm-none-eabi/lib/thumb/v7e-m/nofp/libc_nano.a(lib_a-signal.o)
 .text._signal_r
                0x0000000000000000       0x30 /usr/share/gcc-arm-none-eabi-10.3-2021.10/bin/../lib/gcc/arm-none-eabi/10.3.1/../../../../arm-none-eabi/lib/thumb/v7e-m/nofp/libc_nano.a(lib_a-signal.o)
 .text.__sigtramp_r
                0x0000000000000000       0x48 /usr/share/gcc-arm-none-eabi-10.3-2021.10/bin/../lib/gcc/arm-none-eabi/10.3.1/../../../../arm-none-eabi/lib/thumb/v7e-m/nofp/libc_nano.a(lib_a-signal.o)
 .text.signal   0x0000000000000000       0x10 /usr/share/gcc-arm-none-eabi-10.3-2021.10/bin/../lib/gcc/arm-none-eabi/10.3.1/../../../../arm-none-eabi/lib/thumb/v7e-m/nofp/libc_nano.a(lib_a-signal.o)
 .text._init_signal
                0x0000000000000000        0xc /usr/share/gcc-arm-none-eabi-10.3-2021.10/bin/../lib/gcc/arm-none-eabi/10.3.1/../../../../arm-none-eabi/lib/thumb/v7e-m/nofp/libc_nano.a(lib_a-signal.o)
 .text.__sigtramp
                0x0000000000000000       0x10 /usr/share/gcc-arm-none-eabi-10.3-2021.10/bin/../lib/gcc/arm-none-eabi/10.3.1/../../../../arm-none-eabi/lib/thumb/v7e-m/nofp/libc_nano.a(lib_a-signal.o)
 .text          0x0000000000000000        0x0 /usr/share/gcc-arm-none-eabi-10.3-2021.10/bin/../lib/gcc/arm-none-eabi/10.3.1/../../../../arm-none-eabi/lib/thumb/v7e-m/nofp/libc_nano.a(lib_a-signalr.o)
 .data          0x0000000000000000        0x0 /usr/share/gcc-arm-none-eabi-10.3-2021.10/bin/../lib/gcc/arm-none-eabi/10.3.1/../../../../arm-none-eabi/lib/thumb/v7e-m/nofp/libc_nano.a(lib_a-signalr.o)
 .bss           0x0000000000000000        0x0 /usr/share/gcc-arm-none-eabi-10.3-2021.10/bin/../lib/gcc/arm-none-eabi/10.3.1/../../../../arm-none-eabi/lib/thumb/v7e-m/nofp/libc_nano.a(lib_a-signalr.o)
 .text          0x0000000000000000        0x0 /usr/share/gcc-arm-none-eabi-10.3-2021.10/bin/../lib/gcc/arm-none-eabi/10.3.1/../../../../arm-none-eabi/lib/thumb/v7e-m/nofp/libc_nano.a(lib_a-nano-mallocr.o)
 .data          0x0000000000000000        0x0 /usr/share/gcc-arm-none-eabi-10.3-2021.10/bin/../lib/gcc/arm-none-eabi/10.3.1/../../../../arm-none-eabi/lib/thumb/v7e-m/nofp/libc_nano.a(lib_a-nano-mallocr.o)
 .bss           0x0000000000000000        0x0 /usr/share/gcc-arm-none-eabi-10.3-2021.10/bin/../lib/gcc/arm-none-eabi/10.3.1/../../../../arm-none-eabi/lib/thumb/v7e-m/nofp/libc_nano.a(lib_a-nano-mallocr.o)
 .text.sbrk_aligned
                0x0000000000000000       0x40 /usr/share/gcc-arm-none-eabi-10.3-2021.10/bin/../lib/gcc/arm-none-eabi/10.3.1/../../../../arm-none-eabi/lib/thumb/v7e-m/nofp/libc_nano.a(lib_a-nano-mallocr.o)
 .text._malloc_r
                0x0000000000000000       0xe8 /usr/share/gcc-arm-none-eabi-10.3-2021.10/bin/../lib/gcc/arm-none-eabi/10.3.1/../../../../arm-none-eabi/lib/thumb/v7e-m/nofp/libc_nano.a(lib_a-nano-mallocr.o)
 .bss.__malloc_free_list
                0x0000000000000000        0x4 /usr/share/gcc-arm-none-eabi-10.3-2021.10/bin/../lib/gcc/arm-none-eabi/10.3.1/../../../../arm-none-eabi/lib/thumb/v7e-m/nofp/libc_nano.a(lib_a-nano-mallocr.o)
 .bss.__malloc_sbrk_start
                0x0000000000000000        0x4 /usr/share/gcc-arm-none-eabi-10.3-2021.10/bin/../lib/gcc/arm-none-eabi/10.3.1/../../../../arm-none-eabi/lib/thumb/v7e-m/nofp/libc_nano.a(lib_a-nano-mallocr.o)
 .debug_frame   0x0000000000000000       0x4c /usr/share/gcc-arm-none-eabi-10.3-2021.10/bin/../lib/gcc/arm-none-eabi/10.3.1/../../../../arm-none-eabi/lib/thumb/v7e-m/nofp/libc_nano.a(lib_a-nano-mallocr.o)
 .ARM.attributes
                0x0000000000000000       0x2e /usr/share/gcc-arm-none-eabi-10.3-2021.10/bin/../lib/gcc/arm-none-eabi/10.3.1/../../../../arm-none-eabi/lib/thumb/v7e-m/nofp/libc_nano.a(lib_a-nano-mallocr.o)
 .text          0x0000000000000000        0x0 /usr/share/gcc-arm-none-eabi-10.3-2021.10/bin/../lib/gcc/arm-none-eabi/10.3.1/../../../../arm-none-eabi/lib/thumb/v7e-m/nofp/libc_nano.a(lib_a-reent.o)
 .data          0x0000000000000000        0x0 /usr/share/gcc-arm-none-eabi-10.3-2021.10/bin/../lib/gcc/arm-none-eabi/10.3.1/../../../../arm-none-eabi/lib/thumb/v7e-m/nofp/libc_nano.a(lib_a-reent.o)
 .bss           0x0000000000000000        0x0 /usr/share/gcc-arm-none-eabi-10.3-2021.10/bin/../lib/gcc/arm-none-eabi/10.3.1/../../../../arm-none-eabi/lib/thumb/v7e-m/nofp/libc_nano.a(lib_a-reent.o)
 .text.cleanup_glue
                0x0000000000000000       0x1a /usr/share/gcc-arm-none-eabi-10.3-2021.10/bin/../lib/gcc/arm-none-eabi/10.3.1/../../../../arm-none-eabi/lib/thumb/v7e-m/nofp/libc_nano.a(lib_a-reent.o)
 .text._reclaim_reent
                0x0000000000000000       0xb8 /usr/share/gcc-arm-none-eabi-10.3-2021.10/bin/../lib/gcc/arm-none-eabi/10.3.1/../../../../arm-none-eabi/lib/thumb/v7e-m/nofp/libc_nano.a(lib_a-reent.o)
 .text          0x0000000000000000        0x0 /usr/share/gcc-arm-none-eabi-10.3-2021.10/bin/../lib/gcc/arm-none-eabi/10.3.1/../../../../arm-none-eabi/lib/thumb/v7e-m/nofp/libc_nano.a(lib_a-sbrkr.o)
 .data          0x0000000000000000        0x0 /usr/share/gcc-arm-none-eabi-10.3-2021.10/bin/../lib/gcc/arm-none-eabi/10.3.1/../../../../arm-none-eabi/lib/thumb/v7e-m/nofp/libc_nano.a(lib_a-sbrkr.o)
 .bss           0x0000000000000000        0x0 /usr/share/gcc-arm-none-eabi-10.3-2021.10/bin/../lib/gcc/arm-none-eabi/10.3.1/../../../../arm-none-eabi/lib/thumb/v7e-m/nofp/libc_nano.a(lib_a-sbrkr.o)
 .text._sbrk_r  0x0000000000000000       0x20 /usr/share/gcc-arm-none-eabi-10.3-2021.10/bin/../lib/gcc/arm-none-eabi/10.3.1/../../../../arm-none-eabi/lib/thumb/v7e-m/nofp/libc_nano.a(lib_a-sbrkr.o)
 .debug_frame   0x0000000000000000       0x2c /usr/share/gcc-arm-none-eabi-10.3-2021.10/bin/../lib/gcc/arm-none-eabi/10.3.1/../../../../arm-none-eabi/lib/thumb/v7e-m/nofp/libc_nano.a(lib_a-sbrkr.o)
 .ARM.attributes
                0x0000000000000000       0x2e /usr/share/gcc-arm-none-eabi-10.3-2021.10/bin/../lib/gcc/arm-none-eabi/10.3.1/../../../../arm-none-eabi/lib/thumb/v7e-m/nofp/libc_nano.a(lib_a-sbrkr.o)
 .text          0x0000000000000000        0x0 /usr/share/gcc-arm-none-eabi-10.3-2021.10/bin/../lib/gcc/arm-none-eabi/10.3.1/../../../../arm-none-eabi/lib/thumb/v7e-m/nofp/libc_nano.a(lib_a-mlock.o)
 .data          0x0000000000000000        0x0 /usr/share/gcc-arm-none-eabi-10.3-2021.10/bin/../lib/gcc/arm-none-eabi/10.3.1/../../../../arm-none-eabi/lib/thumb/v7e-m/nofp/libc_nano.a(lib_a-mlock.o)
 .bss           0x0000000000000000        0x0 /usr/share/gcc-arm-none-eabi-10.3-2021.10/bin/../lib/gcc/arm-none-eabi/10.3.1/../../../../arm-none-eabi/lib/thumb/v7e-m/nofp/libc_nano.a(lib_a-mlock.o)
 .text.__malloc_lock
                0x0000000000000000        0xc /usr/share/gcc-arm-none-eabi-10.3-2021.10/bin/../lib/gcc/arm-none-eabi/10.3.1/../../../../arm-none-eabi/lib/thumb/v7e-m/nofp/libc_nano.a(lib_a-mlock.o)
 .text.__malloc_unlock
                0x0000000000000000        0xc /usr/share/gcc-arm-none-eabi-10.3-2021.10/bin/../lib/gcc/arm-none-eabi/10.3.1/../../../../arm-none-eabi/lib/thumb/v7e-m/nofp/libc_nano.a(lib_a-mlock.o)
 .debug_frame   0x0000000000000000       0x30 /usr/share/gcc-arm-none-eabi-10.3-2021.10/bin/../lib/gcc/arm-none-eabi/10.3.1/../../../../arm-none-eabi/lib/thumb/v7e-m/nofp/libc_nano.a(lib_a-mlock.o)
 .ARM.attributes
                0x0000000000000000       0x2e /usr/share/gcc-arm-none-eabi-10.3-2021.10/bin/../lib/gcc/arm-none-eabi/10.3.1/../../../../arm-none-eabi/lib/thumb/v7e-m/nofp/libc_nano.a(lib_a-mlock.o)
 .text          0x0000000000000000        0x0 /usr/share/gcc-arm-none-eabi-10.3-2021.10/bin/../lib/gcc/arm-none-eabi/10.3.1/../../../../arm-none-eabi/lib/thumb/v7e-m/nofp/libc_nano.a(lib_a-nano-freer.o)
 .data          0x0000000000000000        0x0 /usr/share/gcc-arm-none-eabi-10.3-2021.10/bin/../lib/gcc/arm-none-eabi/10.3.1/../../../../arm-none-eabi/lib/thumb/v7e-m/nofp/libc_nano.a(lib_a-nano-freer.o)
 .bss           0x0000000000000000        0x0 /usr/share/gcc-arm-none-eabi-10.3-2021.10/bin/../lib/gcc/arm-none-eabi/10.3.1/../../../../arm-none-eabi/lib/thumb/v7e-m/nofp/libc_nano.a(lib_a-nano-freer.o)
 .text._free_r  0x0000000000000000       0x94 /usr/share/gcc-arm-none-eabi-10.3-2021.10/bin/../lib/gcc/arm-none-eabi/10.3.1/../../../../arm-none-eabi/lib/thumb/v7e-m/nofp/libc_nano.a(lib_a-nano-freer.o)
 .debug_frame   0x0000000000000000       0x38 /usr/share/gcc-arm-none-eabi-10.3-2021.10/bin/../lib/gcc/arm-none-eabi/10.3.1/../../../../arm-none-eabi/lib/thumb/v7e-m/nofp/libc_nano.a(lib_a-nano-freer.o)
 .ARM.attributes
                0x0000000000000000       0x2e /usr/share/gcc-arm-none-eabi-10.3-2021.10/bin/../lib/gcc/arm-none-eabi/10.3.1/../../../../arm-none-eabi/lib/thumb/v7e-m/nofp/libc_nano.a(lib_a-nano-freer.o)
 .text          0x0000000000000000        0x0 /usr/share/gcc-arm-none-eabi-10.3-2021.10/bin/../lib/gcc/arm-none-eabi/10.3.1/../../../../arm-none-eabi/lib/thumb/v7e-m/nofp/libc_nano.a(lib_a-lock.o)
 .data          0x0000000000000000        0x0 /usr/share/gcc-arm-none-eabi-10.3-2021.10/bin/../lib/gcc/arm-none-eabi/10.3.1/../../../../arm-none-eabi/lib/thumb/v7e-m/nofp/libc_nano.a(lib_a-lock.o)
 .bss           0x0000000000000000        0x0 /usr/share/gcc-arm-none-eabi-10.3-2021.10/bin/../lib/gcc/arm-none-eabi/10.3.1/../../../../arm-none-eabi/lib/thumb/v7e-m/nofp/libc_nano.a(lib_a-lock.o)
 .text.__retarget_lock_init
                0x0000000000000000        0x2 /usr/share/gcc-arm-none-eabi-10.3-2021.10/bin/../lib/gcc/arm-none-eabi/10.3.1/../../../../arm-none-eabi/lib/thumb/v7e-m/nofp/libc_nano.a(lib_a-lock.o)
 .text.__retarget_lock_init_recursive
                0x0000000000000000        0x2 /usr/share/gcc-arm-none-eabi-10.3-2021.10/bin/../lib/gcc/arm-none-eabi/10.3.1/../../../../arm-none-eabi/lib/thumb/v7e-m/nofp/libc_nano.a(lib_a-lock.o)
 .text.__retarget_lock_close
                0x0000000000000000        0x2 /usr/share/gcc-arm-none-eabi-10.3-2021.10/bin/../lib/gcc/arm-none-eabi/10.3.1/../../../../arm-none-eabi/lib/thumb/v7e-m/nofp/libc_nano.a(lib_a-lock.o)
 .text.__retarget_lock_close_recursive
                0x0000000000000000        0x2 /usr/share/gcc-arm-none-eabi-10.3-2021.10/bin/../lib/gcc/arm-none-eabi/10.3.1/../../../../arm-none-eabi/lib/thumb/v7e-m/nofp/libc_nano.a(lib_a-lock.o)
 .text.__retarget_lock_acquire
                0x0000000000000000        0x2 /usr/share/gcc-arm-none-eabi-10.3-2021.10/bin/../lib/gcc/arm-none-eabi/10.3.1/../../../../arm-none-eabi/lib/thumb/v7e-m/nofp/libc_nano.a(lib_a-lock.o)
 .text.__retarget_lock_acquire_recursive
                0x0000000000000000        0x2 /usr/share/gcc-arm-none-eabi-10.3-2021.10/bin/../lib/gcc/arm-none-eabi/10.3.1/../../../../arm-none-eabi/lib/thumb/v7e-m/nofp/libc_nano.a(lib_a-lock.o)
 .text.__retarget_lock_try_acquire
                0x0000000000000000        0x4 /usr/share/gcc-arm-none-eabi-10.3-2021.10/bin/../lib/gcc/arm-none-eabi/10.3.1/../../../../arm-none-eabi/lib/thumb/v7e-m/nofp/libc_nano.a(lib_a-lock.o)
 .text.__retarget_lock_try_acquire_recursive
                0x0000000000000000        0x4 /usr/share/gcc-arm-none-eabi-10.3-2021.10/bin/../lib/gcc/arm-none-eabi/10.3.1/../../../../arm-none-eabi/lib/thumb/v7e-m/nofp/libc_nano.a(lib_a-lock.o)
 .text.__retarget_lock_release
                0x0000000000000000        0x2 /usr/share/gcc-arm-none-eabi-10.3-2021.10/bin/../lib/gcc/arm-none-eabi/10.3.1/../../../../arm-none-eabi/lib/thumb/v7e-m/nofp/libc_nano.a(lib_a-lock.o)
 .text.__retarget_lock_release_recursive
                0x0000000000000000        0x2 /usr/share/gcc-arm-none-eabi-10.3-2021.10/bin/../lib/gcc/arm-none-eabi/10.3.1/../../../../arm-none-eabi/lib/thumb/v7e-m/nofp/libc_nano.a(lib_a-lock.o)
 .bss.__lock___arc4random_mutex
                0x0000000000000000        0x1 /usr/share/gcc-arm-none-eabi-10.3-2021.10/bin/../lib/gcc/arm-none-eabi/10.3.1/../../../../arm-none-eabi/lib/thumb/v7e-m/nofp/libc_nano.a(lib_a-lock.o)
 .bss.__lock___at_quick_exit_mutex
                0x0000000000000000        0x1 /usr/share/gcc-arm-none-eabi-10.3-2021.10/bin/../lib/gcc/arm-none-eabi/10.3.1/../../../../arm-none-eabi/lib/thumb/v7e-m/nofp/libc_nano.a(lib_a-lock.o)
 .bss.__lock___atexit_recursive_mutex
                0x0000000000000000        0x1 /usr/share/gcc-arm-none-eabi-10.3-2021.10/bin/../lib/gcc/arm-none-eabi/10.3.1/../../../../arm-none-eabi/lib/thumb/v7e-m/nofp/libc_nano.a(lib_a-lock.o)
 .bss.__lock___dd_hash_mutex
                0x0000000000000000        0x1 /usr/share/gcc-arm-none-eabi-10.3-2021.10/bin/../lib/gcc/arm-none-eabi/10.3.1/../../../../arm-none-eabi/lib/thumb/v7e-m/nofp/libc_nano.a(lib_a-lock.o)
 .bss.__lock___env_recursive_mutex
                0x0000000000000000        0x1 /usr/share/gcc-arm-none-eabi-10.3-2021.10/bin/../lib/gcc/arm-none-eabi/10.3.1/../../../../arm-none-eabi/lib/thumb/v7e-m/nofp/libc_nano.a(lib_a-lock.o)
 .bss.__lock___malloc_recursive_mutex
                0x0000000000000000        0x1 /usr/share/gcc-arm-none-eabi-10.3-2021.10/bin/../lib/gcc/arm-none-eabi/10.3.1/../../../../arm-none-eabi/lib/thumb/v7e-m/nofp/libc_nano.a(lib_a-lock.o)
 .bss.__lock___sfp_recursive_mutex
                0x0000000000000000        0x1 /usr/share/gcc-arm-none-eabi-10.3-2021.10/bin/../lib/gcc/arm-none-eabi/10.3.1/../../../../arm-none-eabi/lib/thumb/v7e-m/nofp/libc_nano.a(lib_a-lock.o)
 .bss.__lock___sinit_recursive_mutex
                0x0000000000000000        0x1 /usr/share/gcc-arm-none-eabi-10.3-2021.10/bin/../lib/gcc/arm-none-eabi/10.3.1/../../../../arm-none-eabi/lib/thumb/v7e-m/nofp/libc_nano.a(lib_a-lock.o)
 .bss.__lock___tz_mutex
                0x0000000000000000        0x1 /usr/share/gcc-arm-none-eabi-10.3-2021.10/bin/../lib/gcc/arm-none-eabi/10.3.1/../../../../arm-none-eabi/lib/thumb/v7e-m/nofp/libc_nano.a(lib_a-lock.o)
 .debug_frame   0x0000000000000000       0xb0 /usr/share/gcc-arm-none-eabi-10.3-2021.10/bin/../lib/gcc/arm-none-eabi/10.3.1/../../../../arm-none-eabi/lib/thumb/v7e-m/nofp/libc_nano.a(lib_a-lock.o)
 .ARM.attributes
                0x0000000000000000       0x2e /usr/share/gcc-arm-none-eabi-10.3-2021.10/bin/../lib/gcc/arm-none-eabi/10.3.1/../../../../arm-none-eabi/lib/thumb/v7e-m/nofp/libc_nano.a(lib_a-lock.o)
 .text          0x0000000000000000        0x0 /usr/share/gcc-arm-none-eabi-10.3-2021.10/bin/../lib/gcc/arm-none-eabi/10.3.1/../../../../arm-none-eabi/lib/thumb/v7e-m/nofp/libnosys.a(getpid.o)
 .data          0x0000000000000000        0x0 /usr/share/gcc-arm-none-eabi-10.3-2021.10/bin/../lib/gcc/arm-none-eabi/10.3.1/../../../../arm-none-eabi/lib/thumb/v7e-m/nofp/libnosys.a(getpid.o)
 .bss           0x0000000000000000        0x0 /usr/share/gcc-arm-none-eabi-10.3-2021.10/bin/../lib/gcc/arm-none-eabi/10.3.1/../../../../arm-none-eabi/lib/thumb/v7e-m/nofp/libnosys.a(getpid.o)
 .text          0x0000000000000000        0x0 /usr/share/gcc-arm-none-eabi-10.3-2021.10/bin/../lib/gcc/arm-none-eabi/10.3.1/../../../../arm-none-eabi/lib/thumb/v7e-m/nofp/libnosys.a(kill.o)
 .data          0x0000000000000000        0x0 /usr/share/gcc-arm-none-eabi-10.3-2021.10/bin/../lib/gcc/arm-none-eabi/10.3.1/../../../../arm-none-eabi/lib/thumb/v7e-m/nofp/libnosys.a(kill.o)
 .bss           0x0000000000000000        0x0 /usr/share/gcc-arm-none-eabi-10.3-2021.10/bin/../lib/gcc/arm-none-eabi/10.3.1/../../../../arm-none-eabi/lib/thumb/v7e-m/nofp/libnosys.a(kill.o)
 .text          0x0000000000000000        0x0 /usr/share/gcc-arm-none-eabi-10.3-2021.10/bin/../lib/gcc/arm-none-eabi/10.3.1/../../../../arm-none-eabi/lib/thumb/v7e-m/nofp/libnosys.a(sbrk.o)
 .data          0x0000000000000000        0x0 /usr/share/gcc-arm-none-eabi-10.3-2021.10/bin/../lib/gcc/arm-none-eabi/10.3.1/../../../../arm-none-eabi/lib/thumb/v7e-m/nofp/libnosys.a(sbrk.o)
 .bss           0x0000000000000000        0x0 /usr/share/gcc-arm-none-eabi-10.3-2021.10/bin/../lib/gcc/arm-none-eabi/10.3.1/../../../../arm-none-eabi/lib/thumb/v7e-m/nofp/libnosys.a(sbrk.o)
 .text._sbrk    0x0000000000000000       0x1c /usr/share/gcc-arm-none-eabi-10.3-2021.10/bin/../lib/gcc/arm-none-eabi/10.3.1/../../../../arm-none-eabi/lib/thumb/v7e-m/nofp/libnosys.a(sbrk.o)
 .bss.heap_end.0
                0x0000000000000000        0x4 /usr/share/gcc-arm-none-eabi-10.3-2021.10/bin/../lib/gcc/arm-none-eabi/10.3.1/../../../../arm-none-eabi/lib/thumb/v7e-m/nofp/libnosys.a(sbrk.o)
 .debug_frame   0x0000000000000000       0x20 /usr/share/gcc-arm-none-eabi-10.3-2021.10/bin/../lib/gcc/arm-none-eabi/10.3.1/../../../../arm-none-eabi/lib/thumb/v7e-m/nofp/libnosys.a(sbrk.o)
 .ARM.attributes
                0x0000000000000000       0x2e /usr/share/gcc-arm-none-eabi-10.3-2021.10/bin/../lib/gcc/arm-none-eabi/10.3.1/../../../../arm-none-eabi/lib/thumb/v7e-m/nofp/libnosys.a(sbrk.o)
 .text          0x0000000000000000        0x0 /usr/share/gcc-arm-none-eabi-10.3-2021.10/bin/../lib/gcc/arm-none-eabi/10.3.1/../../../../arm-none-eabi/lib/thumb/v7e-m/nofp/libnosys.a(_exit.o)
 .data          0x0000000000000000        0x0 /usr/share/gcc-arm-none-eabi-10.3-2021.10/bin/../lib/gcc/arm-none-eabi/10.3.1/../../../../arm-none-eabi/lib/thumb/v7e-m/nofp/libnosys.a(_exit.o)
 .bss           0x0000000000000000        0x0 /usr/share/gcc-arm-none-eabi-10.3-2021.10/bin/../lib/gcc/arm-none-eabi/10.3.1/../../../../arm-none-eabi/lib/thumb/v7e-m/nofp/libnosys.a(_exit.o)
 .text          0x0000000000000000        0x0 /usr/share/gcc-arm-none-eabi-10.3-2021.10/bin/../lib/gcc/arm-none-eabi/10.3.1/thumb/v7e-m/nofp/crtend.o
 .data          0x0000000000000000        0x0 /usr/share/gcc-arm-none-eabi-10.3-2021.10/bin/../lib/gcc/arm-none-eabi/10.3.1/thumb/v7e-m/nofp/crtend.o
 .bss           0x0000000000000000        0x0 /usr/share/gcc-arm-none-eabi-10.3-2021.10/bin/../lib/gcc/arm-none-eabi/10.3.1/thumb/v7e-m/nofp/crtend.o
 .rodata        0x0000000000000000       0x24 /usr/share/gcc-arm-none-eabi-10.3-2021.10/bin/../lib/gcc/arm-none-eabi/10.3.1/thumb/v7e-m/nofp/crtend.o
 .eh_frame      0x0000000000000000        0x4 /usr/share/gcc-arm-none-eabi-10.3-2021.10/bin/../lib/gcc/arm-none-eabi/10.3.1/thumb/v7e-m/nofp/crtend.o
 .ARM.attributes
                0x0000000000000000       0x2e /usr/share/gcc-arm-none-eabi-10.3-2021.10/bin/../lib/gcc/arm-none-eabi/10.3.1/thumb/v7e-m/nofp/crtend.o
 .text          0x0000000000000000        0x0 /usr/share/gcc-arm-none-eabi-10.3-2021.10/bin/../lib/gcc/arm-none-eabi/10.3.1/thumb/v7e-m/nofp/crtn.o
 .data          0x0000000000000000        0x0 /usr/share/gcc-arm-none-eabi-10.3-2021.10/bin/../lib/gcc/arm-none-eabi/10.3.1/thumb/v7e-m/nofp/crtn.o
 .bss           0x0000000000000000        0x0 /usr/share/gcc-arm-none-eabi-10.3-2021.10/bin/../lib/gcc/arm-none-eabi/10.3.1/thumb/v7e-m/nofp/crtn.o

Memory Configuration

Name             Origin             Length             Attributes
FLASH            0x0000000008000000 0x0000000000100000 xr
RAM              0x0000000020000000 0x0000000000020000 xrw
CCMRAM           0x0000000010000000 0x0000000000010000 rw
*default*        0x0000000000000000 0xffffffffffffffff

Linker script and memory map

LOAD /usr/share/gcc-arm-none-eabi-10.3-2021.10/bin/../lib/gcc/arm-none-eabi/10.3.1/thumb/v7e-m/nofp/crti.o
LOAD /usr/share/gcc-arm-none-eabi-10.3-2021.10/bin/../lib/gcc/arm-none-eabi/10.3.1/thumb/v7e-m/nofp/crtbegin.o
LOAD /usr/share/gcc-arm-none-eabi-10.3-2021.10/bin/../lib/gcc/arm-none-eabi/10.3.1/../../../../arm-none-eabi/lib/thumb/v7e-m/nofp/crt0.o
LOAD CMakeFiles/bootloader.out.dir/stm32f4/dependencies/stm32f4xx_it.c.o
LOAD CMakeFiles/bootloader.out.dir/stm32f4/dependencies/system_stm32f4xx.c.o
LOAD CMakeFiles/bootloader.out.dir/stm32f4/startup/startup_stm32f40_41xxx.s.o
LOAD CMakeFiles/bootloader.out.dir/stm32f4/stm32f407/src/peripherals/sys_clock/clock_config.cpp.o
LOAD CMakeFiles/bootloader.out.dir/stm32f4/stm32f407/src/peripherals/gpio/gpio.cpp.o
LOAD CMakeFiles/bootloader.out.dir/stm32f4/stm32f407/src/peripherals/usart/usart.cpp.o
LOAD CMakeFiles/bootloader.out.dir/src/main.cpp.o
LOAD /usr/share/gcc-arm-none-eabi-10.3-2021.10/bin/../lib/gcc/arm-none-eabi/10.3.1/../../../../arm-none-eabi/lib/thumb/v7e-m/nofp/libstdc++_nano.a
LOAD /usr/share/gcc-arm-none-eabi-10.3-2021.10/bin/../lib/gcc/arm-none-eabi/10.3.1/../../../../arm-none-eabi/lib/thumb/v7e-m/nofp/libm.a
START GROUP
LOAD /usr/share/gcc-arm-none-eabi-10.3-2021.10/bin/../lib/gcc/arm-none-eabi/10.3.1/thumb/v7e-m/nofp/libgcc.a
LOAD /usr/share/gcc-arm-none-eabi-10.3-2021.10/bin/../lib/gcc/arm-none-eabi/10.3.1/../../../../arm-none-eabi/lib/thumb/v7e-m/nofp/libc_nano.a
END GROUP
START GROUP
LOAD /usr/share/gcc-arm-none-eabi-10.3-2021.10/bin/../lib/gcc/arm-none-eabi/10.3.1/thumb/v7e-m/nofp/libgcc.a
LOAD /usr/share/gcc-arm-none-eabi-10.3-2021.10/bin/../lib/gcc/arm-none-eabi/10.3.1/../../../../arm-none-eabi/lib/thumb/v7e-m/nofp/libc_nano.a
LOAD /usr/share/gcc-arm-none-eabi-10.3-2021.10/bin/../lib/gcc/arm-none-eabi/10.3.1/../../../../arm-none-eabi/lib/thumb/v7e-m/nofp/libnosys.a
END GROUP
START GROUP
LOAD /usr/share/gcc-arm-none-eabi-10.3-2021.10/bin/../lib/gcc/arm-none-eabi/10.3.1/thumb/v7e-m/nofp/libgcc.a
LOAD /usr/share/gcc-arm-none-eabi-10.3-2021.10/bin/../lib/gcc/arm-none-eabi/10.3.1/../../../../arm-none-eabi/lib/thumb/v7e-m/nofp/libc_nano.a
LOAD /usr/share/gcc-arm-none-eabi-10.3-2021.10/bin/../lib/gcc/arm-none-eabi/10.3.1/../../../../arm-none-eabi/lib/thumb/v7e-m/nofp/libnosys.a
END GROUP
LOAD /usr/share/gcc-arm-none-eabi-10.3-2021.10/bin/../lib/gcc/arm-none-eabi/10.3.1/thumb/v7e-m/nofp/crtend.o
LOAD /usr/share/gcc-arm-none-eabi-10.3-2021.10/bin/../lib/gcc/arm-none-eabi/10.3.1/thumb/v7e-m/nofp/crtn.o
                0x000000002001ffff                _estack = 0x2001ffff
                0x0000000000000200                _Min_Heap_Size = 0x200
                0x0000000000000400                _Min_Stack_Size = 0x400

.isr_vector     0x0000000008000000      0x188
                0x0000000008000000                . = ALIGN (0x4)
 *(.isr_vector)
 .isr_vector    0x0000000008000000      0x188 CMakeFiles/bootloader.out.dir/stm32f4/startup/startup_stm32f40_41xxx.s.o
                0x0000000008000000                g_pfnVectors
                0x0000000008000188                . = ALIGN (0x4)

.text           0x0000000008000188     0x1e34
                0x0000000008000188                . = ALIGN (0x4)
 *(.text)
 .text          0x0000000008000188       0x40 /usr/share/gcc-arm-none-eabi-10.3-2021.10/bin/../lib/gcc/arm-none-eabi/10.3.1/thumb/v7e-m/nofp/crtbegin.o
 .text          0x00000000080001c8      0x9d8 /usr/share/gcc-arm-none-eabi-10.3-2021.10/bin/../lib/gcc/arm-none-eabi/10.3.1/thumb/v7e-m/nofp/libgcc.a(unwind-arm.o)
                0x0000000008000470                _Unwind_GetCFA
                0x0000000008000474                __gnu_Unwind_RaiseException
                0x00000000080004dc                __gnu_Unwind_ForcedUnwind
                0x00000000080004ec                __gnu_Unwind_Resume
                0x0000000008000530                __gnu_Unwind_Resume_or_Rethrow
                0x0000000008000540                _Unwind_Complete
                0x0000000008000544                _Unwind_DeleteException
                0x0000000008000550                _Unwind_VRS_Get
                0x000000000800059c                _Unwind_VRS_Set
                0x00000000080005e4                __gnu_Unwind_Backtrace
                0x0000000008000910                __aeabi_unwind_cpp_pr0
                0x0000000008000914                __aeabi_unwind_cpp_pr1
                0x0000000008000918                __aeabi_unwind_cpp_pr2
                0x000000000800091c                _Unwind_VRS_Pop
 .text          0x0000000008000ba0      0x1ac /usr/share/gcc-arm-none-eabi-10.3-2021.10/bin/../lib/gcc/arm-none-eabi/10.3.1/thumb/v7e-m/nofp/libgcc.a(libunwind.o)
                0x0000000008000ba0                __restore_core_regs
                0x0000000008000ba0                restore_core_regs
                0x0000000008000bb8                __gnu_Unwind_Restore_VFP
                0x0000000008000bc0                __gnu_Unwind_Save_VFP
                0x0000000008000bc8                __gnu_Unwind_Restore_VFP_D
                0x0000000008000bd0                __gnu_Unwind_Save_VFP_D
                0x0000000008000bd8                __gnu_Unwind_Restore_VFP_D_16_to_31
                0x0000000008000be0                __gnu_Unwind_Save_VFP_D_16_to_31
                0x0000000008000be8                __gnu_Unwind_Restore_WMMXD
                0x0000000008000c2c                __gnu_Unwind_Save_WMMXD
                0x0000000008000c70                __gnu_Unwind_Restore_WMMXC
                0x0000000008000c84                __gnu_Unwind_Save_WMMXC
                0x0000000008000c98                ___Unwind_RaiseException
                0x0000000008000c98                _Unwind_RaiseException
                0x0000000008000cbc                ___Unwind_Resume
                0x0000000008000cbc                _Unwind_Resume
                0x0000000008000ce0                _Unwind_Resume_or_Rethrow
                0x0000000008000ce0                ___Unwind_Resume_or_Rethrow
                0x0000000008000d04                ___Unwind_ForcedUnwind
                0x0000000008000d04                _Unwind_ForcedUnwind
                0x0000000008000d28                _Unwind_Backtrace
                0x0000000008000d28                ___Unwind_Backtrace
 .text          0x0000000008000d4c      0x350 /usr/share/gcc-arm-none-eabi-10.3-2021.10/bin/../lib/gcc/arm-none-eabi/10.3.1/thumb/v7e-m/nofp/libgcc.a(pr-support.o)
                0x0000000008000da4                __gnu_unwind_execute
                0x0000000008001050                __gnu_unwind_frame
                0x000000000800107c                _Unwind_GetRegionStart
                0x0000000008001088                _Unwind_GetLanguageSpecificData
 *(.text*)
 .text.NMI_Handler
                0x000000000800109c        0xc CMakeFiles/bootloader.out.dir/stm32f4/dependencies/stm32f4xx_it.c.o
                0x000000000800109c                NMI_Handler
 .text.HardFault_Handler
                0x00000000080010a8        0x6 CMakeFiles/bootloader.out.dir/stm32f4/dependencies/stm32f4xx_it.c.o
                0x00000000080010a8                HardFault_Handler
 .text.MemManage_Handler
                0x00000000080010ae        0x6 CMakeFiles/bootloader.out.dir/stm32f4/dependencies/stm32f4xx_it.c.o
                0x00000000080010ae                MemManage_Handler
 .text.BusFault_Handler
                0x00000000080010b4        0x6 CMakeFiles/bootloader.out.dir/stm32f4/dependencies/stm32f4xx_it.c.o
                0x00000000080010b4                BusFault_Handler
 .text.UsageFault_Handler
                0x00000000080010ba        0x6 CMakeFiles/bootloader.out.dir/stm32f4/dependencies/stm32f4xx_it.c.o
                0x00000000080010ba                UsageFault_Handler
 .text.SVC_Handler
                0x00000000080010c0        0xc CMakeFiles/bootloader.out.dir/stm32f4/dependencies/stm32f4xx_it.c.o
                0x00000000080010c0                SVC_Handler
 .text.DebugMon_Handler
                0x00000000080010cc        0xc CMakeFiles/bootloader.out.dir/stm32f4/dependencies/stm32f4xx_it.c.o
                0x00000000080010cc                DebugMon_Handler
 .text.PendSV_Handler
                0x00000000080010d8        0xc CMakeFiles/bootloader.out.dir/stm32f4/dependencies/stm32f4xx_it.c.o
                0x00000000080010d8                PendSV_Handler
 .text.SysTick_Handler
                0x00000000080010e4        0xc CMakeFiles/bootloader.out.dir/stm32f4/dependencies/stm32f4xx_it.c.o
                0x00000000080010e4                SysTick_Handler
 .text.SystemInit
                0x00000000080010f0       0x5c CMakeFiles/bootloader.out.dir/stm32f4/dependencies/system_stm32f4xx.c.o
                0x00000000080010f0                SystemInit
 .text.SetSysClock
                0x000000000800114c       0xf4 CMakeFiles/bootloader.out.dir/stm32f4/dependencies/system_stm32f4xx.c.o
 .text.Reset_Handler
                0x0000000008001240       0x48 CMakeFiles/bootloader.out.dir/stm32f4/startup/startup_stm32f40_41xxx.s.o
                0x0000000008001240                Reset_Handler
 .text.Default_Handler
                0x0000000008001288        0x2 CMakeFiles/bootloader.out.dir/stm32f4/startup/startup_stm32f40_41xxx.s.o
                0x0000000008001288                RTC_Alarm_IRQHandler
                0x0000000008001288                HASH_RNG_IRQHandler
                0x0000000008001288                EXTI2_IRQHandler
                0x0000000008001288                TIM8_CC_IRQHandler
                0x0000000008001288                TIM1_CC_IRQHandler
                0x0000000008001288                DMA2_Stream5_IRQHandler
                0x0000000008001288                DMA1_Stream5_IRQHandler
                0x0000000008001288                PVD_IRQHandler
                0x0000000008001288                SDIO_IRQHandler
                0x0000000008001288                TAMP_STAMP_IRQHandler
                0x0000000008001288                CAN2_RX1_IRQHandler
                0x0000000008001288                EXTI3_IRQHandler
                0x0000000008001288                TIM8_TRG_COM_TIM14_IRQHandler
                0x0000000008001288                TIM1_UP_TIM10_IRQHandler
                0x0000000008001288                TIM8_UP_TIM13_IRQHandler
                0x0000000008001288                I2C3_ER_IRQHandler
                0x0000000008001288                EXTI0_IRQHandler
                0x0000000008001288                I2C2_EV_IRQHandler
                0x0000000008001288                DMA1_Stream2_IRQHandler
                0x0000000008001288                CAN1_RX0_IRQHandler
                0x0000000008001288                FPU_IRQHandler
                0x0000000008001288                OTG_HS_WKUP_IRQHandler
                0x0000000008001288                CAN2_SCE_IRQHandler
                0x0000000008001288                DMA2_Stream2_IRQHandler
                0x0000000008001288                SPI1_IRQHandler
                0x0000000008001288                TIM6_DAC_IRQHandler
                0x0000000008001288                TIM1_BRK_TIM9_IRQHandler
                0x0000000008001288                DCMI_IRQHandler
                0x0000000008001288                CAN2_RX0_IRQHandler
                0x0000000008001288                DMA2_Stream3_IRQHandler
                0x0000000008001288                USART6_IRQHandler
                0x0000000008001288                USART3_IRQHandler
                0x0000000008001288                CRYP_IRQHandler
                0x0000000008001288                CAN1_RX1_IRQHandler
                0x0000000008001288                UART5_IRQHandler
                0x0000000008001288                DMA2_Stream0_IRQHandler
                0x0000000008001288                TIM4_IRQHandler
                0x0000000008001288                I2C1_EV_IRQHandler
                0x0000000008001288                DMA1_Stream6_IRQHandler
                0x0000000008001288                DMA1_Stream1_IRQHandler
                0x0000000008001288                UART4_IRQHandler
                0x0000000008001288                TIM3_IRQHandler
                0x0000000008001288                RCC_IRQHandler
                0x0000000008001288                TIM8_BRK_TIM12_IRQHandler
                0x0000000008001288                Default_Handler
                0x0000000008001288                EXTI15_10_IRQHandler
                0x0000000008001288                ADC_IRQHandler
                0x0000000008001288                DMA1_Stream7_IRQHandler
                0x0000000008001288                TIM7_IRQHandler
                0x0000000008001288                CAN2_TX_IRQHandler
                0x0000000008001288                TIM5_IRQHandler
                0x0000000008001288                DMA2_Stream7_IRQHandler
                0x0000000008001288                I2C3_EV_IRQHandler
                0x0000000008001288                EXTI9_5_IRQHandler
                0x0000000008001288                RTC_WKUP_IRQHandler
                0x0000000008001288                ETH_WKUP_IRQHandler
                0x0000000008001288                SPI2_IRQHandler
                0x0000000008001288                OTG_HS_EP1_IN_IRQHandler
                0x0000000008001288                DMA1_Stream0_IRQHandler
                0x0000000008001288                CAN1_TX_IRQHandler
                0x0000000008001288                EXTI4_IRQHandler
                0x0000000008001288                FSMC_IRQHandler
                0x0000000008001288                ETH_IRQHandler
                0x0000000008001288                OTG_HS_EP1_OUT_IRQHandler
                0x0000000008001288                WWDG_IRQHandler
                0x0000000008001288                TIM2_IRQHandler
                0x0000000008001288                OTG_FS_WKUP_IRQHandler
                0x0000000008001288                TIM1_TRG_COM_TIM11_IRQHandler
                0x0000000008001288                OTG_HS_IRQHandler
                0x0000000008001288                EXTI1_IRQHandler
                0x0000000008001288                USART2_IRQHandler
                0x0000000008001288                I2C2_ER_IRQHandler
                0x0000000008001288                DMA2_Stream1_IRQHandler
                0x0000000008001288                CAN1_SCE_IRQHandler
                0x0000000008001288                FLASH_IRQHandler
                0x0000000008001288                DMA2_Stream4_IRQHandler
                0x0000000008001288                USART1_IRQHandler
                0x0000000008001288                OTG_FS_IRQHandler
                0x0000000008001288                SPI3_IRQHandler
                0x0000000008001288                DMA1_Stream4_IRQHandler
                0x0000000008001288                I2C1_ER_IRQHandler
                0x0000000008001288                DMA2_Stream6_IRQHandler
                0x0000000008001288                DMA1_Stream3_IRQHandler
 .text._ZN16custom_libraries12clock_configC2Ev
                0x000000000800128a       0x14 CMakeFiles/bootloader.out.dir/stm32f4/stm32f407/src/peripherals/sys_clock/clock_config.cpp.o
                0x000000000800128a                custom_libraries::clock_config::clock_config()
                0x000000000800128a                custom_libraries::clock_config::clock_config()
 .text._ZN16custom_libraries12clock_configD2Ev
                0x000000000800129e       0x14 CMakeFiles/bootloader.out.dir/stm32f4/stm32f407/src/peripherals/sys_clock/clock_config.cpp.o
                0x000000000800129e                custom_libraries::clock_config::~clock_config()
                0x000000000800129e                custom_libraries::clock_config::~clock_config()
 *fill*         0x00000000080012b2        0x2 
 .text._ZN16custom_libraries12clock_config10initializeEv
                0x00000000080012b4      0x130 CMakeFiles/bootloader.out.dir/stm32f4/stm32f407/src/peripherals/sys_clock/clock_config.cpp.o
                0x00000000080012b4                custom_libraries::clock_config::initialize()
 .text._ZN16custom_libraries5_GPIOC2EP12GPIO_TypeDefh
                0x00000000080013e4      0x11c CMakeFiles/bootloader.out.dir/stm32f4/stm32f407/src/peripherals/gpio/gpio.cpp.o
                0x00000000080013e4                custom_libraries::_GPIO::_GPIO(GPIO_TypeDef*, unsigned char)
                0x00000000080013e4                custom_libraries::_GPIO::_GPIO(GPIO_TypeDef*, unsigned char)
 .text._ZN16custom_libraries5_GPIO8pin_modeENS_4ModeE
                0x0000000008001500       0xa4 CMakeFiles/bootloader.out.dir/stm32f4/stm32f407/src/peripherals/gpio/gpio.cpp.o
                0x0000000008001500                custom_libraries::_GPIO::pin_mode(custom_libraries::Mode)
 .text._ZN16custom_libraries5_GPIO11input_stateENS_5StateE
                0x00000000080015a4       0xe8 CMakeFiles/bootloader.out.dir/stm32f4/stm32f407/src/peripherals/gpio/gpio.cpp.o
                0x00000000080015a4                custom_libraries::_GPIO::input_state(custom_libraries::State)
 .text._ZNK16custom_libraries5_GPIO12digital_readEv
                0x000000000800168c       0x38 CMakeFiles/bootloader.out.dir/stm32f4/stm32f407/src/peripherals/gpio/gpio.cpp.o
                0x000000000800168c                custom_libraries::_GPIO::digital_read() const
 .text._ZN16custom_libraries5_GPIOD2Ev
                0x00000000080016c4       0x14 CMakeFiles/bootloader.out.dir/stm32f4/stm32f407/src/peripherals/gpio/gpio.cpp.o
                0x00000000080016c4                custom_libraries::_GPIO::~_GPIO()
                0x00000000080016c4                custom_libraries::_GPIO::~_GPIO()
 .text._ZN16custom_libraries5USARTC2EP13USART_TypeDefP12GPIO_TypeDefhhi
                0x00000000080016d8       0x3e CMakeFiles/bootloader.out.dir/stm32f4/stm32f407/src/peripherals/usart/usart.cpp.o
                0x00000000080016d8                custom_libraries::USART::USART(USART_TypeDef*, GPIO_TypeDef*, unsigned char, unsigned char, int)
                0x00000000080016d8                custom_libraries::USART::USART(USART_TypeDef*, GPIO_TypeDef*, unsigned char, unsigned char, int)
 *fill*         0x0000000008001716        0x2 
 .text._ZN16custom_libraries5USART10initializeEv
                0x0000000008001718      0x56c CMakeFiles/bootloader.out.dir/stm32f4/stm32f407/src/peripherals/usart/usart.cpp.o
                0x0000000008001718                custom_libraries::USART::initialize()
 .text._ZN16custom_libraries5USART10print_charEc
                0x0000000008001c84       0x3c CMakeFiles/bootloader.out.dir/stm32f4/stm32f407/src/peripherals/usart/usart.cpp.o
                0x0000000008001c84                custom_libraries::USART::print_char(char)
 .text._ZN16custom_libraries5USART7printlnEPc
                0x0000000008001cc0       0x36 CMakeFiles/bootloader.out.dir/stm32f4/stm32f407/src/peripherals/usart/usart.cpp.o
                0x0000000008001cc0                custom_libraries::USART::println(char*)
 .text._ZN16custom_libraries5USARTD2Ev
                0x0000000008001cf6       0x14 CMakeFiles/bootloader.out.dir/stm32f4/stm32f407/src/peripherals/usart/usart.cpp.o
                0x0000000008001cf6                custom_libraries::USART::~USART()
                0x0000000008001cf6                custom_libraries::USART::~USART()
 *fill*         0x0000000008001d0a        0x2 
 .text.main     0x0000000008001d0c       0x74 CMakeFiles/bootloader.out.dir/src/main.cpp.o
                0x0000000008001d0c                main
 .text._Z35bootloader_jump_to_user_applicationv
                0x0000000008001d80       0x38 CMakeFiles/bootloader.out.dir/src/main.cpp.o
                0x0000000008001d80                bootloader_jump_to_user_application()
 .text._Z25bootloader_uart_read_datav
                0x0000000008001db8        0xc CMakeFiles/bootloader.out.dir/src/main.cpp.o
                0x0000000008001db8                bootloader_uart_read_data()
 .text._Z41__static_initialization_and_destruction_0ii
                0x0000000008001dc4       0x8c CMakeFiles/bootloader.out.dir/src/main.cpp.o
 .text._GLOBAL__sub_I_system_clock
                0x0000000008001e50       0x10 CMakeFiles/bootloader.out.dir/src/main.cpp.o
 .text.__aeabi_atexit
                0x0000000008001e60        0xa /usr/share/gcc-arm-none-eabi-10.3-2021.10/bin/../lib/gcc/arm-none-eabi/10.3.1/../../../../arm-none-eabi/lib/thumb/v7e-m/nofp/libstdc++_nano.a(atexit_arm.o)
                0x0000000008001e60                __aeabi_atexit
 .text.abort    0x0000000008001e6a        0xe /usr/share/gcc-arm-none-eabi-10.3-2021.10/bin/../lib/gcc/arm-none-eabi/10.3.1/../../../../arm-none-eabi/lib/thumb/v7e-m/nofp/libc_nano.a(lib_a-abort.o)
                0x0000000008001e6a                abort
 .text.__cxa_atexit
                0x0000000008001e78       0x1c /usr/share/gcc-arm-none-eabi-10.3-2021.10/bin/../lib/gcc/arm-none-eabi/10.3.1/../../../../arm-none-eabi/lib/thumb/v7e-m/nofp/libc_nano.a(lib_a-cxa_atexit.o)
                0x0000000008001e78                __cxa_atexit
 .text.__libc_init_array
                0x0000000008001e94       0x48 /usr/share/gcc-arm-none-eabi-10.3-2021.10/bin/../lib/gcc/arm-none-eabi/10.3.1/../../../../arm-none-eabi/lib/thumb/v7e-m/nofp/libc_nano.a(lib_a-init.o)
                0x0000000008001e94                __libc_init_array
 .text.memcpy   0x0000000008001edc       0x1c /usr/share/gcc-arm-none-eabi-10.3-2021.10/bin/../lib/gcc/arm-none-eabi/10.3.1/../../../../arm-none-eabi/lib/thumb/v7e-m/nofp/libc_nano.a(lib_a-memcpy-stub.o)
                0x0000000008001edc                memcpy
 .text._raise_r
                0x0000000008001ef8       0x50 /usr/share/gcc-arm-none-eabi-10.3-2021.10/bin/../lib/gcc/arm-none-eabi/10.3.1/../../../../arm-none-eabi/lib/thumb/v7e-m/nofp/libc_nano.a(lib_a-signal.o)
                0x0000000008001ef8                _raise_r
 .text.raise    0x0000000008001f48       0x10 /usr/share/gcc-arm-none-eabi-10.3-2021.10/bin/../lib/gcc/arm-none-eabi/10.3.1/../../../../arm-none-eabi/lib/thumb/v7e-m/nofp/libc_nano.a(lib_a-signal.o)
                0x0000000008001f48                raise
 .text._kill_r  0x0000000008001f58       0x24 /usr/share/gcc-arm-none-eabi-10.3-2021.10/bin/../lib/gcc/arm-none-eabi/10.3.1/../../../../arm-none-eabi/lib/thumb/v7e-m/nofp/libc_nano.a(lib_a-signalr.o)
                0x0000000008001f58                _kill_r
 .text._getpid_r
                0x0000000008001f7c        0x4 /usr/share/gcc-arm-none-eabi-10.3-2021.10/bin/../lib/gcc/arm-none-eabi/10.3.1/../../../../arm-none-eabi/lib/thumb/v7e-m/nofp/libc_nano.a(lib_a-signalr.o)
                0x0000000008001f7c                _getpid_r
 .text._getpid  0x0000000008001f80       0x10 /usr/share/gcc-arm-none-eabi-10.3-2021.10/bin/../lib/gcc/arm-none-eabi/10.3.1/../../../../arm-none-eabi/lib/thumb/v7e-m/nofp/libnosys.a(getpid.o)
                0x0000000008001f80                _getpid
 .text._kill    0x0000000008001f90       0x10 /usr/share/gcc-arm-none-eabi-10.3-2021.10/bin/../lib/gcc/arm-none-eabi/10.3.1/../../../../arm-none-eabi/lib/thumb/v7e-m/nofp/libnosys.a(kill.o)
                0x0000000008001f90                _kill
 .text._exit    0x0000000008001fa0        0x4 /usr/share/gcc-arm-none-eabi-10.3-2021.10/bin/../lib/gcc/arm-none-eabi/10.3.1/../../../../arm-none-eabi/lib/thumb/v7e-m/nofp/libnosys.a(_exit.o)
                0x0000000008001fa0                _exit
 *(.glue_7)
 .glue_7        0x0000000008001fa4        0x0 linker stubs
 *(.glue_7t)
 .glue_7t       0x0000000008001fa4        0x0 linker stubs
 *(.eh_frame)
 .eh_frame      0x0000000008001fa4        0x0 /usr/share/gcc-arm-none-eabi-10.3-2021.10/bin/../lib/gcc/arm-none-eabi/10.3.1/thumb/v7e-m/nofp/crtbegin.o
 *(.init)
 .init          0x0000000008001fa4        0x4 /usr/share/gcc-arm-none-eabi-10.3-2021.10/bin/../lib/gcc/arm-none-eabi/10.3.1/thumb/v7e-m/nofp/crti.o
                0x0000000008001fa4                _init
 .init          0x0000000008001fa8        0x8 /usr/share/gcc-arm-none-eabi-10.3-2021.10/bin/../lib/gcc/arm-none-eabi/10.3.1/thumb/v7e-m/nofp/crtn.o
 *(.fini)
 .fini          0x0000000008001fb0        0x4 /usr/share/gcc-arm-none-eabi-10.3-2021.10/bin/../lib/gcc/arm-none-eabi/10.3.1/thumb/v7e-m/nofp/crti.o
                0x0000000008001fb0                _fini
 .fini          0x0000000008001fb4        0x8 /usr/share/gcc-arm-none-eabi-10.3-2021.10/bin/../lib/gcc/arm-none-eabi/10.3.1/thumb/v7e-m/nofp/crtn.o
                0x0000000008001fbc                . = ALIGN (0x4)
                0x0000000008001fbc                _etext = .

.vfp11_veneer   0x0000000008001fbc        0x0
 .vfp11_veneer  0x0000000008001fbc        0x0 linker stubs

.v4_bx          0x0000000008001fbc        0x0
 .v4_bx         0x0000000008001fbc        0x0 linker stubs

.iplt           0x0000000008001fbc        0x0
 .iplt          0x0000000008001fbc        0x0 /usr/share/gcc-arm-none-eabi-10.3-2021.10/bin/../lib/gcc/arm-none-eabi/10.3.1/thumb/v7e-m/nofp/crtbegin.o

.rodata         0x0000000008001fbc       0x9c
                0x0000000008001fbc                . = ALIGN (0x4)
 *(.rodata)
 .rodata        0x0000000008001fbc       0x9b CMakeFiles/bootloader.out.dir/src/main.cpp.o
 *(.rodata*)
                0x0000000008002058                . = ALIGN (0x4)
 *fill*         0x0000000008002057        0x1 

.ARM.extab      0x0000000008002058       0x24
 *(.ARM.extab* .gnu.linkonce.armextab.*)
 .ARM.extab.text._Z35bootloader_jump_to_user_applicationv
                0x0000000008002058        0xc CMakeFiles/bootloader.out.dir/src/main.cpp.o
 .ARM.extab     0x0000000008002064       0x18 /usr/share/gcc-arm-none-eabi-10.3-2021.10/bin/../lib/gcc/arm-none-eabi/10.3.1/thumb/v7e-m/nofp/libgcc.a(pr-support.o)

.ARM            0x000000000800207c       0xd0
                0x000000000800207c                __exidx_start = .
 *(.ARM.exidx*)
 .ARM.exidx.text._ZN16custom_libraries12clock_configC2Ev
                0x0000000008002134        0x0 CMakeFiles/bootloader.out.dir/stm32f4/stm32f407/src/peripherals/sys_clock/clock_config.cpp.o
                                          0x8 (size before relaxing)
 .ARM.exidx.text._ZN16custom_libraries12clock_configD2Ev
                0x0000000008002134        0x0 CMakeFiles/bootloader.out.dir/stm32f4/stm32f407/src/peripherals/sys_clock/clock_config.cpp.o
                                          0x8 (size before relaxing)
 .ARM.exidx.text._ZN16custom_libraries12clock_config10initializeEv
                0x0000000008002134        0x0 CMakeFiles/bootloader.out.dir/stm32f4/stm32f407/src/peripherals/sys_clock/clock_config.cpp.o
                                          0x8 (size before relaxing)
 .ARM.exidx.text._ZN16custom_libraries5_GPIOC2EP12GPIO_TypeDefh
                0x0000000008002134        0x0 CMakeFiles/bootloader.out.dir/stm32f4/stm32f407/src/peripherals/gpio/gpio.cpp.o
                                          0x8 (size before relaxing)
 .ARM.exidx.text._ZN16custom_libraries5_GPIO8pin_modeENS_4ModeE
                0x0000000008002134        0x0 CMakeFiles/bootloader.out.dir/stm32f4/stm32f407/src/peripherals/gpio/gpio.cpp.o
                                          0x8 (size before relaxing)
 .ARM.exidx.text._ZN16custom_libraries5_GPIO11input_stateENS_5StateE
                0x0000000008002134        0x0 CMakeFiles/bootloader.out.dir/stm32f4/stm32f407/src/peripherals/gpio/gpio.cpp.o
                                          0x8 (size before relaxing)
 .ARM.exidx.text._ZNK16custom_libraries5_GPIO12digital_readEv
                0x0000000008002134        0x0 CMakeFiles/bootloader.out.dir/stm32f4/stm32f407/src/peripherals/gpio/gpio.cpp.o
                                          0x8 (size before relaxing)
 .ARM.exidx.text._ZN16custom_libraries5_GPIOD2Ev
                0x0000000008002134        0x0 CMakeFiles/bootloader.out.dir/stm32f4/stm32f407/src/peripherals/gpio/gpio.cpp.o
                                          0x8 (size before relaxing)
 .ARM.exidx.text._ZN16custom_libraries5USARTC2EP13USART_TypeDefP12GPIO_TypeDefhhi
                0x0000000008002134        0x0 CMakeFiles/bootloader.out.dir/stm32f4/stm32f407/src/peripherals/usart/usart.cpp.o
                                          0x8 (size before relaxing)
 .ARM.exidx.text._ZN16custom_libraries5USART10initializeEv
                0x0000000008002134        0x0 CMakeFiles/bootloader.out.dir/stm32f4/stm32f407/src/peripherals/usart/usart.cpp.o
                                          0x8 (size before relaxing)
 .ARM.exidx.text._ZN16custom_libraries5USART10print_charEc
                0x0000000008002134        0x0 CMakeFiles/bootloader.out.dir/stm32f4/stm32f407/src/peripherals/usart/usart.cpp.o
                                          0x8 (size before relaxing)
 .ARM.exidx.text._ZN16custom_libraries5USART7printlnEPc
                0x0000000008002134        0x0 CMakeFiles/bootloader.out.dir/stm32f4/stm32f407/src/peripherals/usart/usart.cpp.o
                                          0x8 (size before relaxing)
 .ARM.exidx.text._ZN16custom_libraries5USARTD2Ev
                0x0000000008002134        0x0 CMakeFiles/bootloader.out.dir/stm32f4/stm32f407/src/peripherals/usart/usart.cpp.o
                                          0x8 (size before relaxing)
 .ARM.exidx.text.main
                0x0000000008002134        0x8 CMakeFiles/bootloader.out.dir/src/main.cpp.o
 .ARM.exidx.text._Z35bootloader_jump_to_user_applicationv
                0x000000000800213c        0x8 CMakeFiles/bootloader.out.dir/src/main.cpp.o
 .ARM.exidx.text._Z25bootloader_uart_read_datav
                0x0000000008002144        0x8 CMakeFiles/bootloader.out.dir/src/main.cpp.o
 .ARM.exidx.text._Z41__static_initialization_and_destruction_0ii
                0x000000000800214c        0x0 CMakeFiles/bootloader.out.dir/src/main.cpp.o
                                          0x8 (size before relaxing)
 .ARM.exidx.text._GLOBAL__sub_I_system_clock
                0x000000000800214c        0x0 CMakeFiles/bootloader.out.dir/src/main.cpp.o
                                          0x8 (size before relaxing)
 .ARM.exidx     0x000000000800207c       0x80 /usr/share/gcc-arm-none-eabi-10.3-2021.10/bin/../lib/gcc/arm-none-eabi/10.3.1/thumb/v7e-m/nofp/libgcc.a(unwind-arm.o)
                                         0xd8 (size before relaxing)
 .ARM.exidx     0x00000000080020fc       0x38 /usr/share/gcc-arm-none-eabi-10.3-2021.10/bin/../lib/gcc/arm-none-eabi/10.3.1/thumb/v7e-m/nofp/libgcc.a(pr-support.o)
                0x000000000800214c                __exidx_end = .

.rel.dyn        0x000000000800214c        0x0
 .rel.iplt      0x000000000800214c        0x0 /usr/share/gcc-arm-none-eabi-10.3-2021.10/bin/../lib/gcc/arm-none-eabi/10.3.1/thumb/v7e-m/nofp/crtbegin.o

.preinit_array  0x000000000800214c        0x0
                0x000000000800214c                PROVIDE (__preinit_array_start = .)
 *(.preinit_array*)
                0x000000000800214c                PROVIDE (__preinit_array_end = .)

.init_array     0x000000000800214c        0x8
                0x000000000800214c                PROVIDE (__init_array_start = .)
 *(SORT_BY_NAME(.init_array.*))
 *(.init_array*)
 .init_array    0x000000000800214c        0x4 /usr/share/gcc-arm-none-eabi-10.3-2021.10/bin/../lib/gcc/arm-none-eabi/10.3.1/thumb/v7e-m/nofp/crtbegin.o
 .init_array    0x0000000008002150        0x4 CMakeFiles/bootloader.out.dir/src/main.cpp.o
                0x0000000008002154                PROVIDE (__init_array_end = .)

.fini_array     0x0000000008002154        0x4
                [!provide]                        PROVIDE (__fini_array_start = .)
 *(SORT_BY_NAME(.fini_array.*))
 *(.fini_array*)
 .fini_array    0x0000000008002154        0x4 /usr/share/gcc-arm-none-eabi-10.3-2021.10/bin/../lib/gcc/arm-none-eabi/10.3.1/thumb/v7e-m/nofp/crtbegin.o
                [!provide]                        PROVIDE (__fini_array_end = .)
                0x0000000008002158                _sidata = LOADADDR (.data)

.data           0x0000000020000000       0x68 load address 0x0000000008002158
                0x0000000020000000                . = ALIGN (0x4)
                0x0000000020000000                _sdata = .
 *(.data)
 .data          0x0000000020000000        0x4 /usr/share/gcc-arm-none-eabi-10.3-2021.10/bin/../lib/gcc/arm-none-eabi/10.3.1/thumb/v7e-m/nofp/crtbegin.o
                0x0000000020000000                __dso_handle
 *(.data*)
 .data._impure_ptr
                0x0000000020000004        0x4 /usr/share/gcc-arm-none-eabi-10.3-2021.10/bin/../lib/gcc/arm-none-eabi/10.3.1/../../../../arm-none-eabi/lib/thumb/v7e-m/nofp/libc_nano.a(lib_a-impure.o)
                0x0000000020000004                _impure_ptr
 .data.impure_data
                0x0000000020000008       0x60 /usr/share/gcc-arm-none-eabi-10.3-2021.10/bin/../lib/gcc/arm-none-eabi/10.3.1/../../../../arm-none-eabi/lib/thumb/v7e-m/nofp/libc_nano.a(lib_a-impure.o)
                0x0000000020000068                . = ALIGN (0x4)
                0x0000000020000068                _edata = .
                0x00000000080021c0                _siccmram = LOADADDR (.ccmram)

.igot.plt       0x0000000020000068        0x0 load address 0x00000000080021c0
 .igot.plt      0x0000000020000068        0x0 /usr/share/gcc-arm-none-eabi-10.3-2021.10/bin/../lib/gcc/arm-none-eabi/10.3.1/thumb/v7e-m/nofp/crtbegin.o

.ccmram         0x0000000010000000        0x0 load address 0x00000000080021c0
                0x0000000010000000                . = ALIGN (0x4)
                0x0000000010000000                _sccmram = .
 *(.ccmram)
 *(.ccmram*)
                0x0000000010000000                . = ALIGN (0x4)
                0x0000000010000000                _eccmram = .
                0x0000000010000000                . = ALIGN (0x4)

.bss            0x0000000020000068      0x444
                0x0000000020000068                _sbss = .
                0x0000000020000068                __bss_start__ = _sbss
 *(.bss)
 .bss           0x0000000020000068       0x1c /usr/share/gcc-arm-none-eabi-10.3-2021.10/bin/../lib/gcc/arm-none-eabi/10.3.1/thumb/v7e-m/nofp/crtbegin.o
 *(.bss*)
 .bss.system_clock
                0x0000000020000084        0x1 CMakeFiles/bootloader.out.dir/src/main.cpp.o
                0x0000000020000084                system_clock
 *fill*         0x0000000020000085        0x3 
 .bss.serial_port
                0x0000000020000088      0x414 CMakeFiles/bootloader.out.dir/src/main.cpp.o
                0x0000000020000088                serial_port
 .bss.user_button
                0x000000002000049c        0xc CMakeFiles/bootloader.out.dir/src/main.cpp.o
                0x000000002000049c                user_button
 .bss.errno     0x00000000200004a8        0x4 /usr/share/gcc-arm-none-eabi-10.3-2021.10/bin/../lib/gcc/arm-none-eabi/10.3.1/../../../../arm-none-eabi/lib/thumb/v7e-m/nofp/libc_nano.a(lib_a-reent.o)
                0x00000000200004a8                errno
 *(COMMON)
                0x00000000200004ac                . = ALIGN (0x4)
                0x00000000200004ac                _ebss = .
                0x00000000200004ac                __bss_end__ = _ebss

._user_heap_stack
                0x00000000200004ac      0x600
                0x00000000200004ac                . = ALIGN (0x4)
                0x00000000200004ac                PROVIDE (end = .)
                [!provide]                        PROVIDE (_end = .)
                0x00000000200006ac                . = (. + _Min_Heap_Size)
 *fill*         0x00000000200004ac      0x200 
                0x0000000020000aac                . = (. + _Min_Stack_Size)
 *fill*         0x00000000200006ac      0x400 
                0x0000000020000aac                . = ALIGN (0x4)

/DISCARD/
 libc.a(*)
 libm.a(*)
 libgcc.a(*)

.ARM.attributes
                0x0000000000000000       0x2a
 *(.ARM.attributes)
 .ARM.attributes
                0x0000000000000000       0x1e /usr/share/gcc-arm-none-eabi-10.3-2021.10/bin/../lib/gcc/arm-none-eabi/10.3.1/thumb/v7e-m/nofp/crti.o
 .ARM.attributes
                0x000000000000001e       0x2e /usr/share/gcc-arm-none-eabi-10.3-2021.10/bin/../lib/gcc/arm-none-eabi/10.3.1/thumb/v7e-m/nofp/crtbegin.o
 .ARM.attributes
                0x000000000000004c       0x2e CMakeFiles/bootloader.out.dir/stm32f4/dependencies/stm32f4xx_it.c.o
 .ARM.attributes
                0x000000000000007a       0x2e CMakeFiles/bootloader.out.dir/stm32f4/dependencies/system_stm32f4xx.c.o
 .ARM.attributes
                0x00000000000000a8       0x21 CMakeFiles/bootloader.out.dir/stm32f4/startup/startup_stm32f40_41xxx.s.o
 .ARM.attributes
                0x00000000000000c9       0x2e CMakeFiles/bootloader.out.dir/stm32f4/stm32f407/src/peripherals/sys_clock/clock_config.cpp.o
 .ARM.attributes
                0x00000000000000f7       0x2e CMakeFiles/bootloader.out.dir/stm32f4/stm32f407/src/peripherals/gpio/gpio.cpp.o
 .ARM.attributes
                0x0000000000000125       0x2e CMakeFiles/bootloader.out.dir/stm32f4/stm32f407/src/peripherals/usart/usart.cpp.o
 .ARM.attributes
                0x0000000000000153       0x2e CMakeFiles/bootloader.out.dir/src/main.cpp.o
 .ARM.attributes
                0x0000000000000181       0x2e /usr/share/gcc-arm-none-eabi-10.3-2021.10/bin/../lib/gcc/arm-none-eabi/10.3.1/../../../../arm-none-eabi/lib/thumb/v7e-m/nofp/libstdc++_nano.a(atexit_arm.o)
 .ARM.attributes
                0x00000000000001af       0x2e /usr/share/gcc-arm-none-eabi-10.3-2021.10/bin/../lib/gcc/arm-none-eabi/10.3.1/thumb/v7e-m/nofp/libgcc.a(unwind-arm.o)
 .ARM.attributes
                0x00000000000001dd       0x1e /usr/share/gcc-arm-none-eabi-10.3-2021.10/bin/../lib/gcc/arm-none-eabi/10.3.1/thumb/v7e-m/nofp/libgcc.a(libunwind.o)
 .ARM.attributes
                0x00000000000001fb       0x2e /usr/share/gcc-arm-none-eabi-10.3-2021.10/bin/../lib/gcc/arm-none-eabi/10.3.1/thumb/v7e-m/nofp/libgcc.a(pr-support.o)
 .ARM.attributes
                0x0000000000000229       0x2e /usr/share/gcc-arm-none-eabi-10.3-2021.10/bin/../lib/gcc/arm-none-eabi/10.3.1/../../../../arm-none-eabi/lib/thumb/v7e-m/nofp/libc_nano.a(lib_a-abort.o)
 .ARM.attributes
                0x0000000000000257       0x2e /usr/share/gcc-arm-none-eabi-10.3-2021.10/bin/../lib/gcc/arm-none-eabi/10.3.1/../../../../arm-none-eabi/lib/thumb/v7e-m/nofp/libc_nano.a(lib_a-cxa_atexit.o)
 .ARM.attributes
                0x0000000000000285       0x2e /usr/share/gcc-arm-none-eabi-10.3-2021.10/bin/../lib/gcc/arm-none-eabi/10.3.1/../../../../arm-none-eabi/lib/thumb/v7e-m/nofp/libc_nano.a(lib_a-impure.o)
 .ARM.attributes
                0x00000000000002b3       0x2e /usr/share/gcc-arm-none-eabi-10.3-2021.10/bin/../lib/gcc/arm-none-eabi/10.3.1/../../../../arm-none-eabi/lib/thumb/v7e-m/nofp/libc_nano.a(lib_a-init.o)
 .ARM.attributes
                0x00000000000002e1       0x2e /usr/share/gcc-arm-none-eabi-10.3-2021.10/bin/../lib/gcc/arm-none-eabi/10.3.1/../../../../arm-none-eabi/lib/thumb/v7e-m/nofp/libc_nano.a(lib_a-memcpy-stub.o)
 .ARM.attributes
                0x000000000000030f       0x2e /usr/share/gcc-arm-none-eabi-10.3-2021.10/bin/../lib/gcc/arm-none-eabi/10.3.1/../../../../arm-none-eabi/lib/thumb/v7e-m/nofp/libc_nano.a(lib_a-signal.o)
 .ARM.attributes
                0x000000000000033d       0x2e /usr/share/gcc-arm-none-eabi-10.3-2021.10/bin/../lib/gcc/arm-none-eabi/10.3.1/../../../../arm-none-eabi/lib/thumb/v7e-m/nofp/libc_nano.a(lib_a-signalr.o)
 .ARM.attributes
                0x000000000000036b       0x2e /usr/share/gcc-arm-none-eabi-10.3-2021.10/bin/../lib/gcc/arm-none-eabi/10.3.1/../../../../arm-none-eabi/lib/thumb/v7e-m/nofp/libc_nano.a(lib_a-reent.o)
 .ARM.attributes
                0x0000000000000399       0x2e /usr/share/gcc-arm-none-eabi-10.3-2021.10/bin/../lib/gcc/arm-none-eabi/10.3.1/../../../../arm-none-eabi/lib/thumb/v7e-m/nofp/libnosys.a(getpid.o)
 .ARM.attributes
                0x00000000000003c7       0x2e /usr/share/gcc-arm-none-eabi-10.3-2021.10/bin/../lib/gcc/arm-none-eabi/10.3.1/../../../../arm-none-eabi/lib/thumb/v7e-m/nofp/libnosys.a(kill.o)
 .ARM.attributes
                0x00000000000003f5       0x2e /usr/share/gcc-arm-none-eabi-10.3-2021.10/bin/../lib/gcc/arm-none-eabi/10.3.1/../../../../arm-none-eabi/lib/thumb/v7e-m/nofp/libnosys.a(_exit.o)
 .ARM.attributes
                0x0000000000000423       0x1e /usr/share/gcc-arm-none-eabi-10.3-2021.10/bin/../lib/gcc/arm-none-eabi/10.3.1/thumb/v7e-m/nofp/crtn.o
OUTPUT(bootloader.out elf32-littlearm)
LOAD linker stubs
LOAD /usr/share/gcc-arm-none-eabi-10.3-2021.10/bin/../lib/gcc/arm-none-eabi/10.3.1/../../../../arm-none-eabi/lib/thumb/v7e-m/nofp/libc.a
LOAD /usr/share/gcc-arm-none-eabi-10.3-2021.10/bin/../lib/gcc/arm-none-eabi/10.3.1/../../../../arm-none-eabi/lib/thumb/v7e-m/nofp/libm.a
LOAD /usr/share/gcc-arm-none-eabi-10.3-2021.10/bin/../lib/gcc/arm-none-eabi/10.3.1/thumb/v7e-m/nofp/libgcc.a

.comment        0x0000000000000000       0x49
 .comment       0x0000000000000000       0x49 CMakeFiles/bootloader.out.dir/stm32f4/dependencies/stm32f4xx_it.c.o
                                         0x4a (size before relaxing)
 .comment       0x0000000000000049       0x4a CMakeFiles/bootloader.out.dir/stm32f4/dependencies/system_stm32f4xx.c.o
 .comment       0x0000000000000049       0x4a CMakeFiles/bootloader.out.dir/stm32f4/stm32f407/src/peripherals/sys_clock/clock_config.cpp.o
 .comment       0x0000000000000049       0x4a CMakeFiles/bootloader.out.dir/stm32f4/stm32f407/src/peripherals/gpio/gpio.cpp.o
 .comment       0x0000000000000049       0x4a CMakeFiles/bootloader.out.dir/stm32f4/stm32f407/src/peripherals/usart/usart.cpp.o
 .comment       0x0000000000000049       0x4a CMakeFiles/bootloader.out.dir/src/main.cpp.o

.debug_frame    0x0000000000000000      0x660
 .debug_frame   0x0000000000000000       0x20 /usr/share/gcc-arm-none-eabi-10.3-2021.10/bin/../lib/gcc/arm-none-eabi/10.3.1/../../../../arm-none-eabi/lib/thumb/v7e-m/nofp/libstdc++_nano.a(atexit_arm.o)
 .debug_frame   0x0000000000000020      0x2d4 /usr/share/gcc-arm-none-eabi-10.3-2021.10/bin/../lib/gcc/arm-none-eabi/10.3.1/thumb/v7e-m/nofp/libgcc.a(unwind-arm.o)
 .debug_frame   0x00000000000002f4      0x104 /usr/share/gcc-arm-none-eabi-10.3-2021.10/bin/../lib/gcc/arm-none-eabi/10.3.1/thumb/v7e-m/nofp/libgcc.a(pr-support.o)
 .debug_frame   0x00000000000003f8       0x28 /usr/share/gcc-arm-none-eabi-10.3-2021.10/bin/../lib/gcc/arm-none-eabi/10.3.1/../../../../arm-none-eabi/lib/thumb/v7e-m/nofp/libc_nano.a(lib_a-abort.o)
 .debug_frame   0x0000000000000420       0x28 /usr/share/gcc-arm-none-eabi-10.3-2021.10/bin/../lib/gcc/arm-none-eabi/10.3.1/../../../../arm-none-eabi/lib/thumb/v7e-m/nofp/libc_nano.a(lib_a-cxa_atexit.o)
 .debug_frame   0x0000000000000448       0x2c /usr/share/gcc-arm-none-eabi-10.3-2021.10/bin/../lib/gcc/arm-none-eabi/10.3.1/../../../../arm-none-eabi/lib/thumb/v7e-m/nofp/libc_nano.a(lib_a-init.o)
 .debug_frame   0x0000000000000474       0x28 /usr/share/gcc-arm-none-eabi-10.3-2021.10/bin/../lib/gcc/arm-none-eabi/10.3.1/../../../../arm-none-eabi/lib/thumb/v7e-m/nofp/libc_nano.a(lib_a-memcpy-stub.o)
 .debug_frame   0x000000000000049c       0xcc /usr/share/gcc-arm-none-eabi-10.3-2021.10/bin/../lib/gcc/arm-none-eabi/10.3.1/../../../../arm-none-eabi/lib/thumb/v7e-m/nofp/libc_nano.a(lib_a-signal.o)
 .debug_frame   0x0000000000000568       0x3c /usr/share/gcc-arm-none-eabi-10.3-2021.10/bin/../lib/gcc/arm-none-eabi/10.3.1/../../../../arm-none-eabi/lib/thumb/v7e-m/nofp/libc_nano.a(lib_a-signalr.o)
 .debug_frame   0x00000000000005a4       0x5c /usr/share/gcc-arm-none-eabi-10.3-2021.10/bin/../lib/gcc/arm-none-eabi/10.3.1/../../../../arm-none-eabi/lib/thumb/v7e-m/nofp/libc_nano.a(lib_a-reent.o)
 .debug_frame   0x0000000000000600       0x20 /usr/share/gcc-arm-none-eabi-10.3-2021.10/bin/../lib/gcc/arm-none-eabi/10.3.1/../../../../arm-none-eabi/lib/thumb/v7e-m/nofp/libnosys.a(getpid.o)
 .debug_frame   0x0000000000000620       0x20 /usr/share/gcc-arm-none-eabi-10.3-2021.10/bin/../lib/gcc/arm-none-eabi/10.3.1/../../../../arm-none-eabi/lib/thumb/v7e-m/nofp/libnosys.a(kill.o)
 .debug_frame   0x0000000000000640       0x20 /usr/share/gcc-arm-none-eabi-10.3-2021.10/bin/../lib/gcc/arm-none-eabi/10.3.1/../../../../arm-none-eabi/lib/thumb/v7e-m/nofp/libnosys.a(_exit.o)

.stab           0x0000000000000000       0x3c
 .stab          0x0000000000000000       0x24 /usr/share/gcc-arm-none-eabi-10.3-2021.10/bin/../lib/gcc/arm-none-eabi/10.3.1/../../../../arm-none-eabi/lib/thumb/v7e-m/nofp/libnosys.a(getpid.o)
 .stab          0x0000000000000024       0x18 /usr/share/gcc-arm-none-eabi-10.3-2021.10/bin/../lib/gcc/arm-none-eabi/10.3.1/../../../../arm-none-eabi/lib/thumb/v7e-m/nofp/libnosys.a(kill.o)
                                         0x24 (size before relaxing)

.stabstr        0x0000000000000000       0x76
 .stabstr       0x0000000000000000       0x76 /usr/share/gcc-arm-none-eabi-10.3-2021.10/bin/../lib/gcc/arm-none-eabi/10.3.1/../../../../arm-none-eabi/lib/thumb/v7e-m/nofp/libnosys.a(getpid.o)

Cross Reference Table

Symbol                                            File
ADC_IRQHandler                                    CMakeFiles/bootloader.out.dir/stm32f4/startup/startup_stm32f40_41xxx.s.o
AHBPrescTable                                     CMakeFiles/bootloader.out.dir/stm32f4/dependencies/system_stm32f4xx.c.o
BusFault_Handler                                  CMakeFiles/bootloader.out.dir/stm32f4/dependencies/stm32f4xx_it.c.o
CAN1_RX0_IRQHandler                               CMakeFiles/bootloader.out.dir/stm32f4/startup/startup_stm32f40_41xxx.s.o
CAN1_RX1_IRQHandler                               CMakeFiles/bootloader.out.dir/stm32f4/startup/startup_stm32f40_41xxx.s.o
CAN1_SCE_IRQHandler                               CMakeFiles/bootloader.out.dir/stm32f4/startup/startup_stm32f40_41xxx.s.o
CAN1_TX_IRQHandler                                CMakeFiles/bootloader.out.dir/stm32f4/startup/startup_stm32f40_41xxx.s.o
CAN2_RX0_IRQHandler                               CMakeFiles/bootloader.out.dir/stm32f4/startup/startup_stm32f40_41xxx.s.o
CAN2_RX1_IRQHandler                               CMakeFiles/bootloader.out.dir/stm32f4/startup/startup_stm32f40_41xxx.s.o
CAN2_SCE_IRQHandler                               CMakeFiles/bootloader.out.dir/stm32f4/startup/startup_stm32f40_41xxx.s.o
CAN2_TX_IRQHandler                                CMakeFiles/bootloader.out.dir/stm32f4/startup/startup_stm32f40_41xxx.s.o
CRYP_IRQHandler                                   CMakeFiles/bootloader.out.dir/stm32f4/startup/startup_stm32f40_41xxx.s.o
DCMI_IRQHandler                                   CMakeFiles/bootloader.out.dir/stm32f4/startup/startup_stm32f40_41xxx.s.o
DMA1_Stream0_IRQHandler                           CMakeFiles/bootloader.out.dir/stm32f4/startup/startup_stm32f40_41xxx.s.o
DMA1_Stream1_IRQHandler                           CMakeFiles/bootloader.out.dir/stm32f4/startup/startup_stm32f40_41xxx.s.o
DMA1_Stream2_IRQHandler                           CMakeFiles/bootloader.out.dir/stm32f4/startup/startup_stm32f40_41xxx.s.o
DMA1_Stream3_IRQHandler                           CMakeFiles/bootloader.out.dir/stm32f4/startup/startup_stm32f40_41xxx.s.o
DMA1_Stream4_IRQHandler                           CMakeFiles/bootloader.out.dir/stm32f4/startup/startup_stm32f40_41xxx.s.o
DMA1_Stream5_IRQHandler                           CMakeFiles/bootloader.out.dir/stm32f4/startup/startup_stm32f40_41xxx.s.o
DMA1_Stream6_IRQHandler                           CMakeFiles/bootloader.out.dir/stm32f4/startup/startup_stm32f40_41xxx.s.o
DMA1_Stream7_IRQHandler                           CMakeFiles/bootloader.out.dir/stm32f4/startup/startup_stm32f40_41xxx.s.o
DMA2_Stream0_IRQHandler                           CMakeFiles/bootloader.out.dir/stm32f4/startup/startup_stm32f40_41xxx.s.o
DMA2_Stream1_IRQHandler                           CMakeFiles/bootloader.out.dir/stm32f4/startup/startup_stm32f40_41xxx.s.o
DMA2_Stream2_IRQHandler                           CMakeFiles/bootloader.out.dir/stm32f4/startup/startup_stm32f40_41xxx.s.o
DMA2_Stream3_IRQHandler                           CMakeFiles/bootloader.out.dir/stm32f4/startup/startup_stm32f40_41xxx.s.o
DMA2_Stream4_IRQHandler                           CMakeFiles/bootloader.out.dir/stm32f4/startup/startup_stm32f40_41xxx.s.o
DMA2_Stream5_IRQHandler                           CMakeFiles/bootloader.out.dir/stm32f4/startup/startup_stm32f40_41xxx.s.o
DMA2_Stream6_IRQHandler                           CMakeFiles/bootloader.out.dir/stm32f4/startup/startup_stm32f40_41xxx.s.o
DMA2_Stream7_IRQHandler                           CMakeFiles/bootloader.out.dir/stm32f4/startup/startup_stm32f40_41xxx.s.o
DebugMon_Handler                                  CMakeFiles/bootloader.out.dir/stm32f4/dependencies/stm32f4xx_it.c.o
Default_Handler                                   CMakeFiles/bootloader.out.dir/stm32f4/startup/startup_stm32f40_41xxx.s.o
ETH_IRQHandler                                    CMakeFiles/bootloader.out.dir/stm32f4/startup/startup_stm32f40_41xxx.s.o
ETH_WKUP_IRQHandler                               CMakeFiles/bootloader.out.dir/stm32f4/startup/startup_stm32f40_41xxx.s.o
EXTI0_IRQHandler                                  CMakeFiles/bootloader.out.dir/stm32f4/startup/startup_stm32f40_41xxx.s.o
EXTI15_10_IRQHandler                              CMakeFiles/bootloader.out.dir/stm32f4/startup/startup_stm32f40_41xxx.s.o
EXTI1_IRQHandler                                  CMakeFiles/bootloader.out.dir/stm32f4/startup/startup_stm32f40_41xxx.s.o
EXTI2_IRQHandler                                  CMakeFiles/bootloader.out.dir/stm32f4/startup/startup_stm32f40_41xxx.s.o
EXTI3_IRQHandler                                  CMakeFiles/bootloader.out.dir/stm32f4/startup/startup_stm32f40_41xxx.s.o
EXTI4_IRQHandler                                  CMakeFiles/bootloader.out.dir/stm32f4/startup/startup_stm32f40_41xxx.s.o
EXTI9_5_IRQHandler                                CMakeFiles/bootloader.out.dir/stm32f4/startup/startup_stm32f40_41xxx.s.o
FLASH_IRQHandler                                  CMakeFiles/bootloader.out.dir/stm32f4/startup/startup_stm32f40_41xxx.s.o
FPU_IRQHandler                                    CMakeFiles/bootloader.out.dir/stm32f4/startup/startup_stm32f40_41xxx.s.o
FSMC_IRQHandler                                   CMakeFiles/bootloader.out.dir/stm32f4/startup/startup_stm32f40_41xxx.s.o
HASH_RNG_IRQHandler                               CMakeFiles/bootloader.out.dir/stm32f4/startup/startup_stm32f40_41xxx.s.o
HardFault_Handler                                 CMakeFiles/bootloader.out.dir/stm32f4/dependencies/stm32f4xx_it.c.o
I2C1_ER_IRQHandler                                CMakeFiles/bootloader.out.dir/stm32f4/startup/startup_stm32f40_41xxx.s.o
I2C1_EV_IRQHandler                                CMakeFiles/bootloader.out.dir/stm32f4/startup/startup_stm32f40_41xxx.s.o
I2C2_ER_IRQHandler                                CMakeFiles/bootloader.out.dir/stm32f4/startup/startup_stm32f40_41xxx.s.o
I2C2_EV_IRQHandler                                CMakeFiles/bootloader.out.dir/stm32f4/startup/startup_stm32f40_41xxx.s.o
I2C3_ER_IRQHandler                                CMakeFiles/bootloader.out.dir/stm32f4/startup/startup_stm32f40_41xxx.s.o
I2C3_EV_IRQHandler                                CMakeFiles/bootloader.out.dir/stm32f4/startup/startup_stm32f40_41xxx.s.o
MemManage_Handler                                 CMakeFiles/bootloader.out.dir/stm32f4/dependencies/stm32f4xx_it.c.o
NMI_Handler                                       CMakeFiles/bootloader.out.dir/stm32f4/dependencies/stm32f4xx_it.c.o
OTG_FS_IRQHandler                                 CMakeFiles/bootloader.out.dir/stm32f4/startup/startup_stm32f40_41xxx.s.o
OTG_FS_WKUP_IRQHandler                            CMakeFiles/bootloader.out.dir/stm32f4/startup/startup_stm32f40_41xxx.s.o
OTG_HS_EP1_IN_IRQHandler                          CMakeFiles/bootloader.out.dir/stm32f4/startup/startup_stm32f40_41xxx.s.o
OTG_HS_EP1_OUT_IRQHandler                         CMakeFiles/bootloader.out.dir/stm32f4/startup/startup_stm32f40_41xxx.s.o
OTG_HS_IRQHandler                                 CMakeFiles/bootloader.out.dir/stm32f4/startup/startup_stm32f40_41xxx.s.o
OTG_HS_WKUP_IRQHandler                            CMakeFiles/bootloader.out.dir/stm32f4/startup/startup_stm32f40_41xxx.s.o
PVD_IRQHandler                                    CMakeFiles/bootloader.out.dir/stm32f4/startup/startup_stm32f40_41xxx.s.o
PendSV_Handler                                    CMakeFiles/bootloader.out.dir/stm32f4/dependencies/stm32f4xx_it.c.o
RCC_IRQHandler                                    CMakeFiles/bootloader.out.dir/stm32f4/startup/startup_stm32f40_41xxx.s.o
RTC_Alarm_IRQHandler                              CMakeFiles/bootloader.out.dir/stm32f4/startup/startup_stm32f40_41xxx.s.o
RTC_WKUP_IRQHandler                               CMakeFiles/bootloader.out.dir/stm32f4/startup/startup_stm32f40_41xxx.s.o
Reset_Handler                                     CMakeFiles/bootloader.out.dir/stm32f4/startup/startup_stm32f40_41xxx.s.o
SDIO_IRQHandler                                   CMakeFiles/bootloader.out.dir/stm32f4/startup/startup_stm32f40_41xxx.s.o
SPI1_IRQHandler                                   CMakeFiles/bootloader.out.dir/stm32f4/startup/startup_stm32f40_41xxx.s.o
SPI2_IRQHandler                                   CMakeFiles/bootloader.out.dir/stm32f4/startup/startup_stm32f40_41xxx.s.o
SPI3_IRQHandler                                   CMakeFiles/bootloader.out.dir/stm32f4/startup/startup_stm32f40_41xxx.s.o
SVC_Handler                                       CMakeFiles/bootloader.out.dir/stm32f4/dependencies/stm32f4xx_it.c.o
SysTick_Handler                                   CMakeFiles/bootloader.out.dir/stm32f4/dependencies/stm32f4xx_it.c.o
SystemCoreClock                                   CMakeFiles/bootloader.out.dir/stm32f4/dependencies/system_stm32f4xx.c.o
SystemCoreClockUpdate                             CMakeFiles/bootloader.out.dir/stm32f4/dependencies/system_stm32f4xx.c.o
SystemInit                                        CMakeFiles/bootloader.out.dir/stm32f4/dependencies/system_stm32f4xx.c.o
                                                  CMakeFiles/bootloader.out.dir/stm32f4/startup/startup_stm32f40_41xxx.s.o
TAMP_STAMP_IRQHandler                             CMakeFiles/bootloader.out.dir/stm32f4/startup/startup_stm32f40_41xxx.s.o
TIM1_BRK_TIM9_IRQHandler                          CMakeFiles/bootloader.out.dir/stm32f4/startup/startup_stm32f40_41xxx.s.o
TIM1_CC_IRQHandler                                CMakeFiles/bootloader.out.dir/stm32f4/startup/startup_stm32f40_41xxx.s.o
TIM1_TRG_COM_TIM11_IRQHandler                     CMakeFiles/bootloader.out.dir/stm32f4/startup/startup_stm32f40_41xxx.s.o
TIM1_UP_TIM10_IRQHandler                          CMakeFiles/bootloader.out.dir/stm32f4/startup/startup_stm32f40_41xxx.s.o
TIM2_IRQHandler                                   CMakeFiles/bootloader.out.dir/stm32f4/startup/startup_stm32f40_41xxx.s.o
TIM3_IRQHandler                                   CMakeFiles/bootloader.out.dir/stm32f4/startup/startup_stm32f40_41xxx.s.o
TIM4_IRQHandler                                   CMakeFiles/bootloader.out.dir/stm32f4/startup/startup_stm32f40_41xxx.s.o
TIM5_IRQHandler                                   CMakeFiles/bootloader.out.dir/stm32f4/startup/startup_stm32f40_41xxx.s.o
TIM6_DAC_IRQHandler                               CMakeFiles/bootloader.out.dir/stm32f4/startup/startup_stm32f40_41xxx.s.o
TIM7_IRQHandler                                   CMakeFiles/bootloader.out.dir/stm32f4/startup/startup_stm32f40_41xxx.s.o
TIM8_BRK_TIM12_IRQHandler                         CMakeFiles/bootloader.out.dir/stm32f4/startup/startup_stm32f40_41xxx.s.o
TIM8_CC_IRQHandler                                CMakeFiles/bootloader.out.dir/stm32f4/startup/startup_stm32f40_41xxx.s.o
TIM8_TRG_COM_TIM14_IRQHandler                     CMakeFiles/bootloader.out.dir/stm32f4/startup/startup_stm32f40_41xxx.s.o
TIM8_UP_TIM13_IRQHandler                          CMakeFiles/bootloader.out.dir/stm32f4/startup/startup_stm32f40_41xxx.s.o
UART4_IRQHandler                                  CMakeFiles/bootloader.out.dir/stm32f4/startup/startup_stm32f40_41xxx.s.o
UART5_IRQHandler                                  CMakeFiles/bootloader.out.dir/stm32f4/startup/startup_stm32f40_41xxx.s.o
USART1_IRQHandler                                 CMakeFiles/bootloader.out.dir/stm32f4/startup/startup_stm32f40_41xxx.s.o
USART2_IRQHandler                                 CMakeFiles/bootloader.out.dir/stm32f4/startup/startup_stm32f40_41xxx.s.o
USART3_IRQHandler                                 CMakeFiles/bootloader.out.dir/stm32f4/startup/startup_stm32f40_41xxx.s.o
USART6_IRQHandler                                 CMakeFiles/bootloader.out.dir/stm32f4/startup/startup_stm32f40_41xxx.s.o
UsageFault_Handler                                CMakeFiles/bootloader.out.dir/stm32f4/dependencies/stm32f4xx_it.c.o
WWDG_IRQHandler                                   CMakeFiles/bootloader.out.dir/stm32f4/startup/startup_stm32f40_41xxx.s.o
_Unwind_Backtrace                                 /usr/share/gcc-arm-none-eabi-10.3-2021.10/bin/../lib/gcc/arm-none-eabi/10.3.1/thumb/v7e-m/nofp/libgcc.a(libunwind.o)
_Unwind_Complete                                  /usr/share/gcc-arm-none-eabi-10.3-2021.10/bin/../lib/gcc/arm-none-eabi/10.3.1/thumb/v7e-m/nofp/libgcc.a(unwind-arm.o)
_Unwind_DeleteException                           /usr/share/gcc-arm-none-eabi-10.3-2021.10/bin/../lib/gcc/arm-none-eabi/10.3.1/thumb/v7e-m/nofp/libgcc.a(unwind-arm.o)
_Unwind_ForcedUnwind                              /usr/share/gcc-arm-none-eabi-10.3-2021.10/bin/../lib/gcc/arm-none-eabi/10.3.1/thumb/v7e-m/nofp/libgcc.a(libunwind.o)
_Unwind_GetCFA                                    /usr/share/gcc-arm-none-eabi-10.3-2021.10/bin/../lib/gcc/arm-none-eabi/10.3.1/thumb/v7e-m/nofp/libgcc.a(unwind-arm.o)
_Unwind_GetDataRelBase                            /usr/share/gcc-arm-none-eabi-10.3-2021.10/bin/../lib/gcc/arm-none-eabi/10.3.1/thumb/v7e-m/nofp/libgcc.a(pr-support.o)
_Unwind_GetLanguageSpecificData                   /usr/share/gcc-arm-none-eabi-10.3-2021.10/bin/../lib/gcc/arm-none-eabi/10.3.1/thumb/v7e-m/nofp/libgcc.a(pr-support.o)
_Unwind_GetRegionStart                            /usr/share/gcc-arm-none-eabi-10.3-2021.10/bin/../lib/gcc/arm-none-eabi/10.3.1/thumb/v7e-m/nofp/libgcc.a(pr-support.o)
_Unwind_GetTextRelBase                            /usr/share/gcc-arm-none-eabi-10.3-2021.10/bin/../lib/gcc/arm-none-eabi/10.3.1/thumb/v7e-m/nofp/libgcc.a(pr-support.o)
_Unwind_RaiseException                            /usr/share/gcc-arm-none-eabi-10.3-2021.10/bin/../lib/gcc/arm-none-eabi/10.3.1/thumb/v7e-m/nofp/libgcc.a(libunwind.o)
_Unwind_Resume                                    /usr/share/gcc-arm-none-eabi-10.3-2021.10/bin/../lib/gcc/arm-none-eabi/10.3.1/thumb/v7e-m/nofp/libgcc.a(libunwind.o)
_Unwind_Resume_or_Rethrow                         /usr/share/gcc-arm-none-eabi-10.3-2021.10/bin/../lib/gcc/arm-none-eabi/10.3.1/thumb/v7e-m/nofp/libgcc.a(libunwind.o)
_Unwind_VRS_Get                                   /usr/share/gcc-arm-none-eabi-10.3-2021.10/bin/../lib/gcc/arm-none-eabi/10.3.1/thumb/v7e-m/nofp/libgcc.a(unwind-arm.o)
                                                  /usr/share/gcc-arm-none-eabi-10.3-2021.10/bin/../lib/gcc/arm-none-eabi/10.3.1/thumb/v7e-m/nofp/libgcc.a(pr-support.o)
_Unwind_VRS_Pop                                   /usr/share/gcc-arm-none-eabi-10.3-2021.10/bin/../lib/gcc/arm-none-eabi/10.3.1/thumb/v7e-m/nofp/libgcc.a(unwind-arm.o)
                                                  /usr/share/gcc-arm-none-eabi-10.3-2021.10/bin/../lib/gcc/arm-none-eabi/10.3.1/thumb/v7e-m/nofp/libgcc.a(pr-support.o)
_Unwind_VRS_Set                                   /usr/share/gcc-arm-none-eabi-10.3-2021.10/bin/../lib/gcc/arm-none-eabi/10.3.1/thumb/v7e-m/nofp/libgcc.a(unwind-arm.o)
                                                  /usr/share/gcc-arm-none-eabi-10.3-2021.10/bin/../lib/gcc/arm-none-eabi/10.3.1/thumb/v7e-m/nofp/libgcc.a(pr-support.o)
___Unwind_Backtrace                               /usr/share/gcc-arm-none-eabi-10.3-2021.10/bin/../lib/gcc/arm-none-eabi/10.3.1/thumb/v7e-m/nofp/libgcc.a(libunwind.o)
___Unwind_ForcedUnwind                            /usr/share/gcc-arm-none-eabi-10.3-2021.10/bin/../lib/gcc/arm-none-eabi/10.3.1/thumb/v7e-m/nofp/libgcc.a(libunwind.o)
___Unwind_RaiseException                          /usr/share/gcc-arm-none-eabi-10.3-2021.10/bin/../lib/gcc/arm-none-eabi/10.3.1/thumb/v7e-m/nofp/libgcc.a(libunwind.o)
___Unwind_Resume                                  /usr/share/gcc-arm-none-eabi-10.3-2021.10/bin/../lib/gcc/arm-none-eabi/10.3.1/thumb/v7e-m/nofp/libgcc.a(libunwind.o)
___Unwind_Resume_or_Rethrow                       /usr/share/gcc-arm-none-eabi-10.3-2021.10/bin/../lib/gcc/arm-none-eabi/10.3.1/thumb/v7e-m/nofp/libgcc.a(libunwind.o)
__aeabi_atexit                                    /usr/share/gcc-arm-none-eabi-10.3-2021.10/bin/../lib/gcc/arm-none-eabi/10.3.1/../../../../arm-none-eabi/lib/thumb/v7e-m/nofp/libstdc++_nano.a(atexit_arm.o)
                                                  CMakeFiles/bootloader.out.dir/src/main.cpp.o
__aeabi_unwind_cpp_pr0                            /usr/share/gcc-arm-none-eabi-10.3-2021.10/bin/../lib/gcc/arm-none-eabi/10.3.1/thumb/v7e-m/nofp/libgcc.a(unwind-arm.o)
                                                  /usr/share/gcc-arm-none-eabi-10.3-2021.10/bin/../lib/gcc/arm-none-eabi/10.3.1/thumb/v7e-m/nofp/libgcc.a(pr-support.o)
                                                  CMakeFiles/bootloader.out.dir/src/main.cpp.o
__aeabi_unwind_cpp_pr1                            /usr/share/gcc-arm-none-eabi-10.3-2021.10/bin/../lib/gcc/arm-none-eabi/10.3.1/thumb/v7e-m/nofp/libgcc.a(unwind-arm.o)
                                                  /usr/share/gcc-arm-none-eabi-10.3-2021.10/bin/../lib/gcc/arm-none-eabi/10.3.1/thumb/v7e-m/nofp/libgcc.a(pr-support.o)
                                                  CMakeFiles/bootloader.out.dir/src/main.cpp.o
__aeabi_unwind_cpp_pr2                            /usr/share/gcc-arm-none-eabi-10.3-2021.10/bin/../lib/gcc/arm-none-eabi/10.3.1/thumb/v7e-m/nofp/libgcc.a(unwind-arm.o)
__bss_end__                                       /usr/share/gcc-arm-none-eabi-10.3-2021.10/bin/../lib/gcc/arm-none-eabi/10.3.1/../../../../arm-none-eabi/lib/thumb/v7e-m/nofp/crt0.o
__bss_start__                                     /usr/share/gcc-arm-none-eabi-10.3-2021.10/bin/../lib/gcc/arm-none-eabi/10.3.1/../../../../arm-none-eabi/lib/thumb/v7e-m/nofp/crt0.o
__call_exitprocs                                  /usr/share/gcc-arm-none-eabi-10.3-2021.10/bin/../lib/gcc/arm-none-eabi/10.3.1/../../../../arm-none-eabi/lib/thumb/v7e-m/nofp/libc_nano.a(lib_a-exit.o)
__cxa_atexit                                      /usr/share/gcc-arm-none-eabi-10.3-2021.10/bin/../lib/gcc/arm-none-eabi/10.3.1/../../../../arm-none-eabi/lib/thumb/v7e-m/nofp/libc_nano.a(lib_a-cxa_atexit.o)
                                                  /usr/share/gcc-arm-none-eabi-10.3-2021.10/bin/../lib/gcc/arm-none-eabi/10.3.1/../../../../arm-none-eabi/lib/thumb/v7e-m/nofp/libstdc++_nano.a(atexit_arm.o)
__cxa_atexit_dummy                                /usr/share/gcc-arm-none-eabi-10.3-2021.10/bin/../lib/gcc/arm-none-eabi/10.3.1/../../../../arm-none-eabi/lib/thumb/v7e-m/nofp/libc_nano.a(lib_a-cxa_atexit.o)
__cxa_begin_cleanup                               /usr/share/gcc-arm-none-eabi-10.3-2021.10/bin/../lib/gcc/arm-none-eabi/10.3.1/thumb/v7e-m/nofp/libgcc.a(unwind-arm.o)
__cxa_call_unexpected                             /usr/share/gcc-arm-none-eabi-10.3-2021.10/bin/../lib/gcc/arm-none-eabi/10.3.1/thumb/v7e-m/nofp/libgcc.a(unwind-arm.o)
__cxa_type_match                                  /usr/share/gcc-arm-none-eabi-10.3-2021.10/bin/../lib/gcc/arm-none-eabi/10.3.1/thumb/v7e-m/nofp/libgcc.a(unwind-arm.o)
__deregister_frame_info                           /usr/share/gcc-arm-none-eabi-10.3-2021.10/bin/../lib/gcc/arm-none-eabi/10.3.1/thumb/v7e-m/nofp/crtbegin.o
__dso_handle                                      /usr/share/gcc-arm-none-eabi-10.3-2021.10/bin/../lib/gcc/arm-none-eabi/10.3.1/thumb/v7e-m/nofp/crtbegin.o
                                                  CMakeFiles/bootloader.out.dir/src/main.cpp.o
__exidx_end                                       /usr/share/gcc-arm-none-eabi-10.3-2021.10/bin/../lib/gcc/arm-none-eabi/10.3.1/thumb/v7e-m/nofp/libgcc.a(unwind-arm.o)
__exidx_start                                     /usr/share/gcc-arm-none-eabi-10.3-2021.10/bin/../lib/gcc/arm-none-eabi/10.3.1/thumb/v7e-m/nofp/libgcc.a(unwind-arm.o)
__gnu_Unwind_Backtrace                            /usr/share/gcc-arm-none-eabi-10.3-2021.10/bin/../lib/gcc/arm-none-eabi/10.3.1/thumb/v7e-m/nofp/libgcc.a(unwind-arm.o)
                                                  /usr/share/gcc-arm-none-eabi-10.3-2021.10/bin/../lib/gcc/arm-none-eabi/10.3.1/thumb/v7e-m/nofp/libgcc.a(libunwind.o)
__gnu_Unwind_Find_exidx                           /usr/share/gcc-arm-none-eabi-10.3-2021.10/bin/../lib/gcc/arm-none-eabi/10.3.1/thumb/v7e-m/nofp/libgcc.a(unwind-arm.o)
__gnu_Unwind_ForcedUnwind                         /usr/share/gcc-arm-none-eabi-10.3-2021.10/bin/../lib/gcc/arm-none-eabi/10.3.1/thumb/v7e-m/nofp/libgcc.a(unwind-arm.o)
                                                  /usr/share/gcc-arm-none-eabi-10.3-2021.10/bin/../lib/gcc/arm-none-eabi/10.3.1/thumb/v7e-m/nofp/libgcc.a(libunwind.o)
__gnu_Unwind_RaiseException                       /usr/share/gcc-arm-none-eabi-10.3-2021.10/bin/../lib/gcc/arm-none-eabi/10.3.1/thumb/v7e-m/nofp/libgcc.a(unwind-arm.o)
                                                  /usr/share/gcc-arm-none-eabi-10.3-2021.10/bin/../lib/gcc/arm-none-eabi/10.3.1/thumb/v7e-m/nofp/libgcc.a(libunwind.o)
__gnu_Unwind_Restore_VFP                          /usr/share/gcc-arm-none-eabi-10.3-2021.10/bin/../lib/gcc/arm-none-eabi/10.3.1/thumb/v7e-m/nofp/libgcc.a(libunwind.o)
                                                  /usr/share/gcc-arm-none-eabi-10.3-2021.10/bin/../lib/gcc/arm-none-eabi/10.3.1/thumb/v7e-m/nofp/libgcc.a(unwind-arm.o)
__gnu_Unwind_Restore_VFP_D                        /usr/share/gcc-arm-none-eabi-10.3-2021.10/bin/../lib/gcc/arm-none-eabi/10.3.1/thumb/v7e-m/nofp/libgcc.a(libunwind.o)
                                                  /usr/share/gcc-arm-none-eabi-10.3-2021.10/bin/../lib/gcc/arm-none-eabi/10.3.1/thumb/v7e-m/nofp/libgcc.a(unwind-arm.o)
__gnu_Unwind_Restore_VFP_D_16_to_31               /usr/share/gcc-arm-none-eabi-10.3-2021.10/bin/../lib/gcc/arm-none-eabi/10.3.1/thumb/v7e-m/nofp/libgcc.a(libunwind.o)
                                                  /usr/share/gcc-arm-none-eabi-10.3-2021.10/bin/../lib/gcc/arm-none-eabi/10.3.1/thumb/v7e-m/nofp/libgcc.a(unwind-arm.o)
__gnu_Unwind_Restore_WMMXC                        /usr/share/gcc-arm-none-eabi-10.3-2021.10/bin/../lib/gcc/arm-none-eabi/10.3.1/thumb/v7e-m/nofp/libgcc.a(libunwind.o)
                                                  /usr/share/gcc-arm-none-eabi-10.3-2021.10/bin/../lib/gcc/arm-none-eabi/10.3.1/thumb/v7e-m/nofp/libgcc.a(unwind-arm.o)
__gnu_Unwind_Restore_WMMXD                        /usr/share/gcc-arm-none-eabi-10.3-2021.10/bin/../lib/gcc/arm-none-eabi/10.3.1/thumb/v7e-m/nofp/libgcc.a(libunwind.o)
                                                  /usr/share/gcc-arm-none-eabi-10.3-2021.10/bin/../lib/gcc/arm-none-eabi/10.3.1/thumb/v7e-m/nofp/libgcc.a(unwind-arm.o)
__gnu_Unwind_Resume                               /usr/share/gcc-arm-none-eabi-10.3-2021.10/bin/../lib/gcc/arm-none-eabi/10.3.1/thumb/v7e-m/nofp/libgcc.a(unwind-arm.o)
                                                  /usr/share/gcc-arm-none-eabi-10.3-2021.10/bin/../lib/gcc/arm-none-eabi/10.3.1/thumb/v7e-m/nofp/libgcc.a(libunwind.o)
__gnu_Unwind_Resume_or_Rethrow                    /usr/share/gcc-arm-none-eabi-10.3-2021.10/bin/../lib/gcc/arm-none-eabi/10.3.1/thumb/v7e-m/nofp/libgcc.a(unwind-arm.o)
                                                  /usr/share/gcc-arm-none-eabi-10.3-2021.10/bin/../lib/gcc/arm-none-eabi/10.3.1/thumb/v7e-m/nofp/libgcc.a(libunwind.o)
__gnu_Unwind_Save_VFP                             /usr/share/gcc-arm-none-eabi-10.3-2021.10/bin/../lib/gcc/arm-none-eabi/10.3.1/thumb/v7e-m/nofp/libgcc.a(libunwind.o)
                                                  /usr/share/gcc-arm-none-eabi-10.3-2021.10/bin/../lib/gcc/arm-none-eabi/10.3.1/thumb/v7e-m/nofp/libgcc.a(unwind-arm.o)
__gnu_Unwind_Save_VFP_D                           /usr/share/gcc-arm-none-eabi-10.3-2021.10/bin/../lib/gcc/arm-none-eabi/10.3.1/thumb/v7e-m/nofp/libgcc.a(libunwind.o)
                                                  /usr/share/gcc-arm-none-eabi-10.3-2021.10/bin/../lib/gcc/arm-none-eabi/10.3.1/thumb/v7e-m/nofp/libgcc.a(unwind-arm.o)
__gnu_Unwind_Save_VFP_D_16_to_31                  /usr/share/gcc-arm-none-eabi-10.3-2021.10/bin/../lib/gcc/arm-none-eabi/10.3.1/thumb/v7e-m/nofp/libgcc.a(libunwind.o)
                                                  /usr/share/gcc-arm-none-eabi-10.3-2021.10/bin/../lib/gcc/arm-none-eabi/10.3.1/thumb/v7e-m/nofp/libgcc.a(unwind-arm.o)
__gnu_Unwind_Save_WMMXC                           /usr/share/gcc-arm-none-eabi-10.3-2021.10/bin/../lib/gcc/arm-none-eabi/10.3.1/thumb/v7e-m/nofp/libgcc.a(libunwind.o)
                                                  /usr/share/gcc-arm-none-eabi-10.3-2021.10/bin/../lib/gcc/arm-none-eabi/10.3.1/thumb/v7e-m/nofp/libgcc.a(unwind-arm.o)
__gnu_Unwind_Save_WMMXD                           /usr/share/gcc-arm-none-eabi-10.3-2021.10/bin/../lib/gcc/arm-none-eabi/10.3.1/thumb/v7e-m/nofp/libgcc.a(libunwind.o)
                                                  /usr/share/gcc-arm-none-eabi-10.3-2021.10/bin/../lib/gcc/arm-none-eabi/10.3.1/thumb/v7e-m/nofp/libgcc.a(unwind-arm.o)
__gnu_unwind_execute                              /usr/share/gcc-arm-none-eabi-10.3-2021.10/bin/../lib/gcc/arm-none-eabi/10.3.1/thumb/v7e-m/nofp/libgcc.a(pr-support.o)
                                                  /usr/share/gcc-arm-none-eabi-10.3-2021.10/bin/../lib/gcc/arm-none-eabi/10.3.1/thumb/v7e-m/nofp/libgcc.a(unwind-arm.o)
__gnu_unwind_frame                                /usr/share/gcc-arm-none-eabi-10.3-2021.10/bin/../lib/gcc/arm-none-eabi/10.3.1/thumb/v7e-m/nofp/libgcc.a(pr-support.o)
__init_array_end                                  /usr/share/gcc-arm-none-eabi-10.3-2021.10/bin/../lib/gcc/arm-none-eabi/10.3.1/../../../../arm-none-eabi/lib/thumb/v7e-m/nofp/libc_nano.a(lib_a-init.o)
__init_array_start                                /usr/share/gcc-arm-none-eabi-10.3-2021.10/bin/../lib/gcc/arm-none-eabi/10.3.1/../../../../arm-none-eabi/lib/thumb/v7e-m/nofp/libc_nano.a(lib_a-init.o)
__libc_fini_array                                 /usr/share/gcc-arm-none-eabi-10.3-2021.10/bin/../lib/gcc/arm-none-eabi/10.3.1/../../../../arm-none-eabi/lib/thumb/v7e-m/nofp/crt0.o
__libc_init_array                                 /usr/share/gcc-arm-none-eabi-10.3-2021.10/bin/../lib/gcc/arm-none-eabi/10.3.1/../../../../arm-none-eabi/lib/thumb/v7e-m/nofp/libc_nano.a(lib_a-init.o)
                                                  CMakeFiles/bootloader.out.dir/stm32f4/startup/startup_stm32f40_41xxx.s.o
                                                  /usr/share/gcc-arm-none-eabi-10.3-2021.10/bin/../lib/gcc/arm-none-eabi/10.3.1/../../../../arm-none-eabi/lib/thumb/v7e-m/nofp/crt0.o
__lock___arc4random_mutex                         /usr/share/gcc-arm-none-eabi-10.3-2021.10/bin/../lib/gcc/arm-none-eabi/10.3.1/../../../../arm-none-eabi/lib/thumb/v7e-m/nofp/libc_nano.a(lib_a-lock.o)
__lock___at_quick_exit_mutex                      /usr/share/gcc-arm-none-eabi-10.3-2021.10/bin/../lib/gcc/arm-none-eabi/10.3.1/../../../../arm-none-eabi/lib/thumb/v7e-m/nofp/libc_nano.a(lib_a-lock.o)
__lock___atexit_recursive_mutex                   /usr/share/gcc-arm-none-eabi-10.3-2021.10/bin/../lib/gcc/arm-none-eabi/10.3.1/../../../../arm-none-eabi/lib/thumb/v7e-m/nofp/libc_nano.a(lib_a-lock.o)
__lock___dd_hash_mutex                            /usr/share/gcc-arm-none-eabi-10.3-2021.10/bin/../lib/gcc/arm-none-eabi/10.3.1/../../../../arm-none-eabi/lib/thumb/v7e-m/nofp/libc_nano.a(lib_a-lock.o)
__lock___env_recursive_mutex                      /usr/share/gcc-arm-none-eabi-10.3-2021.10/bin/../lib/gcc/arm-none-eabi/10.3.1/../../../../arm-none-eabi/lib/thumb/v7e-m/nofp/libc_nano.a(lib_a-lock.o)
__lock___malloc_recursive_mutex                   /usr/share/gcc-arm-none-eabi-10.3-2021.10/bin/../lib/gcc/arm-none-eabi/10.3.1/../../../../arm-none-eabi/lib/thumb/v7e-m/nofp/libc_nano.a(lib_a-lock.o)
                                                  /usr/share/gcc-arm-none-eabi-10.3-2021.10/bin/../lib/gcc/arm-none-eabi/10.3.1/../../../../arm-none-eabi/lib/thumb/v7e-m/nofp/libc_nano.a(lib_a-mlock.o)
__lock___sfp_recursive_mutex                      /usr/share/gcc-arm-none-eabi-10.3-2021.10/bin/../lib/gcc/arm-none-eabi/10.3.1/../../../../arm-none-eabi/lib/thumb/v7e-m/nofp/libc_nano.a(lib_a-lock.o)
__lock___sinit_recursive_mutex                    /usr/share/gcc-arm-none-eabi-10.3-2021.10/bin/../lib/gcc/arm-none-eabi/10.3.1/../../../../arm-none-eabi/lib/thumb/v7e-m/nofp/libc_nano.a(lib_a-lock.o)
__lock___tz_mutex                                 /usr/share/gcc-arm-none-eabi-10.3-2021.10/bin/../lib/gcc/arm-none-eabi/10.3.1/../../../../arm-none-eabi/lib/thumb/v7e-m/nofp/libc_nano.a(lib_a-lock.o)
__malloc_free_list                                /usr/share/gcc-arm-none-eabi-10.3-2021.10/bin/../lib/gcc/arm-none-eabi/10.3.1/../../../../arm-none-eabi/lib/thumb/v7e-m/nofp/libc_nano.a(lib_a-nano-mallocr.o)
                                                  /usr/share/gcc-arm-none-eabi-10.3-2021.10/bin/../lib/gcc/arm-none-eabi/10.3.1/../../../../arm-none-eabi/lib/thumb/v7e-m/nofp/libc_nano.a(lib_a-nano-freer.o)
__malloc_lock                                     /usr/share/gcc-arm-none-eabi-10.3-2021.10/bin/../lib/gcc/arm-none-eabi/10.3.1/../../../../arm-none-eabi/lib/thumb/v7e-m/nofp/libc_nano.a(lib_a-mlock.o)
                                                  /usr/share/gcc-arm-none-eabi-10.3-2021.10/bin/../lib/gcc/arm-none-eabi/10.3.1/../../../../arm-none-eabi/lib/thumb/v7e-m/nofp/libc_nano.a(lib_a-nano-freer.o)
                                                  /usr/share/gcc-arm-none-eabi-10.3-2021.10/bin/../lib/gcc/arm-none-eabi/10.3.1/../../../../arm-none-eabi/lib/thumb/v7e-m/nofp/libc_nano.a(lib_a-nano-mallocr.o)
__malloc_sbrk_start                               /usr/share/gcc-arm-none-eabi-10.3-2021.10/bin/../lib/gcc/arm-none-eabi/10.3.1/../../../../arm-none-eabi/lib/thumb/v7e-m/nofp/libc_nano.a(lib_a-nano-mallocr.o)
__malloc_unlock                                   /usr/share/gcc-arm-none-eabi-10.3-2021.10/bin/../lib/gcc/arm-none-eabi/10.3.1/../../../../arm-none-eabi/lib/thumb/v7e-m/nofp/libc_nano.a(lib_a-mlock.o)
                                                  /usr/share/gcc-arm-none-eabi-10.3-2021.10/bin/../lib/gcc/arm-none-eabi/10.3.1/../../../../arm-none-eabi/lib/thumb/v7e-m/nofp/libc_nano.a(lib_a-nano-freer.o)
                                                  /usr/share/gcc-arm-none-eabi-10.3-2021.10/bin/../lib/gcc/arm-none-eabi/10.3.1/../../../../arm-none-eabi/lib/thumb/v7e-m/nofp/libc_nano.a(lib_a-nano-mallocr.o)
__on_exit_args                                    /usr/share/gcc-arm-none-eabi-10.3-2021.10/bin/../lib/gcc/arm-none-eabi/10.3.1/../../../../arm-none-eabi/lib/thumb/v7e-m/nofp/libc_nano.a(lib_a-on_exit_args.o)
                                                  /usr/share/gcc-arm-none-eabi-10.3-2021.10/bin/../lib/gcc/arm-none-eabi/10.3.1/../../../../arm-none-eabi/lib/thumb/v7e-m/nofp/libc_nano.a(lib_a-cxa_atexit.o)
__preinit_array_end                               /usr/share/gcc-arm-none-eabi-10.3-2021.10/bin/../lib/gcc/arm-none-eabi/10.3.1/../../../../arm-none-eabi/lib/thumb/v7e-m/nofp/libc_nano.a(lib_a-init.o)
__preinit_array_start                             /usr/share/gcc-arm-none-eabi-10.3-2021.10/bin/../lib/gcc/arm-none-eabi/10.3.1/../../../../arm-none-eabi/lib/thumb/v7e-m/nofp/libc_nano.a(lib_a-init.o)
__register_exitproc                               /usr/share/gcc-arm-none-eabi-10.3-2021.10/bin/../lib/gcc/arm-none-eabi/10.3.1/../../../../arm-none-eabi/lib/thumb/v7e-m/nofp/libc_nano.a(lib_a-cxa_atexit.o)
__register_frame_info                             /usr/share/gcc-arm-none-eabi-10.3-2021.10/bin/../lib/gcc/arm-none-eabi/10.3.1/thumb/v7e-m/nofp/crtbegin.o
__restore_core_regs                               /usr/share/gcc-arm-none-eabi-10.3-2021.10/bin/../lib/gcc/arm-none-eabi/10.3.1/thumb/v7e-m/nofp/libgcc.a(libunwind.o)
__retarget_lock_acquire                           /usr/share/gcc-arm-none-eabi-10.3-2021.10/bin/../lib/gcc/arm-none-eabi/10.3.1/../../../../arm-none-eabi/lib/thumb/v7e-m/nofp/libc_nano.a(lib_a-lock.o)
__retarget_lock_acquire_recursive                 /usr/share/gcc-arm-none-eabi-10.3-2021.10/bin/../lib/gcc/arm-none-eabi/10.3.1/../../../../arm-none-eabi/lib/thumb/v7e-m/nofp/libc_nano.a(lib_a-lock.o)
                                                  /usr/share/gcc-arm-none-eabi-10.3-2021.10/bin/../lib/gcc/arm-none-eabi/10.3.1/../../../../arm-none-eabi/lib/thumb/v7e-m/nofp/libc_nano.a(lib_a-mlock.o)
__retarget_lock_close                             /usr/share/gcc-arm-none-eabi-10.3-2021.10/bin/../lib/gcc/arm-none-eabi/10.3.1/../../../../arm-none-eabi/lib/thumb/v7e-m/nofp/libc_nano.a(lib_a-lock.o)
__retarget_lock_close_recursive                   /usr/share/gcc-arm-none-eabi-10.3-2021.10/bin/../lib/gcc/arm-none-eabi/10.3.1/../../../../arm-none-eabi/lib/thumb/v7e-m/nofp/libc_nano.a(lib_a-lock.o)
__retarget_lock_init                              /usr/share/gcc-arm-none-eabi-10.3-2021.10/bin/../lib/gcc/arm-none-eabi/10.3.1/../../../../arm-none-eabi/lib/thumb/v7e-m/nofp/libc_nano.a(lib_a-lock.o)
__retarget_lock_init_recursive                    /usr/share/gcc-arm-none-eabi-10.3-2021.10/bin/../lib/gcc/arm-none-eabi/10.3.1/../../../../arm-none-eabi/lib/thumb/v7e-m/nofp/libc_nano.a(lib_a-lock.o)
__retarget_lock_release                           /usr/share/gcc-arm-none-eabi-10.3-2021.10/bin/../lib/gcc/arm-none-eabi/10.3.1/../../../../arm-none-eabi/lib/thumb/v7e-m/nofp/libc_nano.a(lib_a-lock.o)
__retarget_lock_release_recursive                 /usr/share/gcc-arm-none-eabi-10.3-2021.10/bin/../lib/gcc/arm-none-eabi/10.3.1/../../../../arm-none-eabi/lib/thumb/v7e-m/nofp/libc_nano.a(lib_a-lock.o)
                                                  /usr/share/gcc-arm-none-eabi-10.3-2021.10/bin/../lib/gcc/arm-none-eabi/10.3.1/../../../../arm-none-eabi/lib/thumb/v7e-m/nofp/libc_nano.a(lib_a-mlock.o)
__retarget_lock_try_acquire                       /usr/share/gcc-arm-none-eabi-10.3-2021.10/bin/../lib/gcc/arm-none-eabi/10.3.1/../../../../arm-none-eabi/lib/thumb/v7e-m/nofp/libc_nano.a(lib_a-lock.o)
__retarget_lock_try_acquire_recursive             /usr/share/gcc-arm-none-eabi-10.3-2021.10/bin/../lib/gcc/arm-none-eabi/10.3.1/../../../../arm-none-eabi/lib/thumb/v7e-m/nofp/libc_nano.a(lib_a-lock.o)
__sf_fake_stderr                                  /usr/share/gcc-arm-none-eabi-10.3-2021.10/bin/../lib/gcc/arm-none-eabi/10.3.1/../../../../arm-none-eabi/lib/thumb/v7e-m/nofp/libc_nano.a(lib_a-impure.o)
__sf_fake_stdin                                   /usr/share/gcc-arm-none-eabi-10.3-2021.10/bin/../lib/gcc/arm-none-eabi/10.3.1/../../../../arm-none-eabi/lib/thumb/v7e-m/nofp/libc_nano.a(lib_a-impure.o)
__sf_fake_stdout                                  /usr/share/gcc-arm-none-eabi-10.3-2021.10/bin/../lib/gcc/arm-none-eabi/10.3.1/../../../../arm-none-eabi/lib/thumb/v7e-m/nofp/libc_nano.a(lib_a-impure.o)
__sigtramp                                        /usr/share/gcc-arm-none-eabi-10.3-2021.10/bin/../lib/gcc/arm-none-eabi/10.3.1/../../../../arm-none-eabi/lib/thumb/v7e-m/nofp/libc_nano.a(lib_a-signal.o)
__sigtramp_r                                      /usr/share/gcc-arm-none-eabi-10.3-2021.10/bin/../lib/gcc/arm-none-eabi/10.3.1/../../../../arm-none-eabi/lib/thumb/v7e-m/nofp/libc_nano.a(lib_a-signal.o)
__stack                                           /usr/share/gcc-arm-none-eabi-10.3-2021.10/bin/../lib/gcc/arm-none-eabi/10.3.1/../../../../arm-none-eabi/lib/thumb/v7e-m/nofp/crt0.o
_ebss                                             CMakeFiles/bootloader.out.dir/stm32f4/startup/startup_stm32f40_41xxx.s.o
_edata                                            CMakeFiles/bootloader.out.dir/stm32f4/startup/startup_stm32f40_41xxx.s.o
_estack                                           CMakeFiles/bootloader.out.dir/stm32f4/startup/startup_stm32f40_41xxx.s.o
_exit                                             /usr/share/gcc-arm-none-eabi-10.3-2021.10/bin/../lib/gcc/arm-none-eabi/10.3.1/../../../../arm-none-eabi/lib/thumb/v7e-m/nofp/libnosys.a(_exit.o)
                                                  /usr/share/gcc-arm-none-eabi-10.3-2021.10/bin/../lib/gcc/arm-none-eabi/10.3.1/../../../../arm-none-eabi/lib/thumb/v7e-m/nofp/libc_nano.a(lib_a-exit.o)
                                                  /usr/share/gcc-arm-none-eabi-10.3-2021.10/bin/../lib/gcc/arm-none-eabi/10.3.1/../../../../arm-none-eabi/lib/thumb/v7e-m/nofp/libc_nano.a(lib_a-abort.o)
_fini                                             /usr/share/gcc-arm-none-eabi-10.3-2021.10/bin/../lib/gcc/arm-none-eabi/10.3.1/thumb/v7e-m/nofp/crti.o
_free_r                                           /usr/share/gcc-arm-none-eabi-10.3-2021.10/bin/../lib/gcc/arm-none-eabi/10.3.1/../../../../arm-none-eabi/lib/thumb/v7e-m/nofp/libc_nano.a(lib_a-nano-freer.o)
                                                  /usr/share/gcc-arm-none-eabi-10.3-2021.10/bin/../lib/gcc/arm-none-eabi/10.3.1/../../../../arm-none-eabi/lib/thumb/v7e-m/nofp/libc_nano.a(lib_a-reent.o)
_getpid                                           /usr/share/gcc-arm-none-eabi-10.3-2021.10/bin/../lib/gcc/arm-none-eabi/10.3.1/../../../../arm-none-eabi/lib/thumb/v7e-m/nofp/libnosys.a(getpid.o)
                                                  /usr/share/gcc-arm-none-eabi-10.3-2021.10/bin/../lib/gcc/arm-none-eabi/10.3.1/../../../../arm-none-eabi/lib/thumb/v7e-m/nofp/libc_nano.a(lib_a-signalr.o)
_getpid_r                                         /usr/share/gcc-arm-none-eabi-10.3-2021.10/bin/../lib/gcc/arm-none-eabi/10.3.1/../../../../arm-none-eabi/lib/thumb/v7e-m/nofp/libc_nano.a(lib_a-signalr.o)
                                                  /usr/share/gcc-arm-none-eabi-10.3-2021.10/bin/../lib/gcc/arm-none-eabi/10.3.1/../../../../arm-none-eabi/lib/thumb/v7e-m/nofp/libc_nano.a(lib_a-signal.o)
_global_impure_ptr                                /usr/share/gcc-arm-none-eabi-10.3-2021.10/bin/../lib/gcc/arm-none-eabi/10.3.1/../../../../arm-none-eabi/lib/thumb/v7e-m/nofp/libc_nano.a(lib_a-impure.o)
                                                  /usr/share/gcc-arm-none-eabi-10.3-2021.10/bin/../lib/gcc/arm-none-eabi/10.3.1/../../../../arm-none-eabi/lib/thumb/v7e-m/nofp/libc_nano.a(lib_a-exit.o)
_impure_ptr                                       /usr/share/gcc-arm-none-eabi-10.3-2021.10/bin/../lib/gcc/arm-none-eabi/10.3.1/../../../../arm-none-eabi/lib/thumb/v7e-m/nofp/libc_nano.a(lib_a-impure.o)
                                                  /usr/share/gcc-arm-none-eabi-10.3-2021.10/bin/../lib/gcc/arm-none-eabi/10.3.1/../../../../arm-none-eabi/lib/thumb/v7e-m/nofp/libc_nano.a(lib_a-reent.o)
                                                  /usr/share/gcc-arm-none-eabi-10.3-2021.10/bin/../lib/gcc/arm-none-eabi/10.3.1/../../../../arm-none-eabi/lib/thumb/v7e-m/nofp/libc_nano.a(lib_a-signal.o)
_init                                             /usr/share/gcc-arm-none-eabi-10.3-2021.10/bin/../lib/gcc/arm-none-eabi/10.3.1/thumb/v7e-m/nofp/crti.o
                                                  /usr/share/gcc-arm-none-eabi-10.3-2021.10/bin/../lib/gcc/arm-none-eabi/10.3.1/../../../../arm-none-eabi/lib/thumb/v7e-m/nofp/libc_nano.a(lib_a-init.o)
_init_signal                                      /usr/share/gcc-arm-none-eabi-10.3-2021.10/bin/../lib/gcc/arm-none-eabi/10.3.1/../../../../arm-none-eabi/lib/thumb/v7e-m/nofp/libc_nano.a(lib_a-signal.o)
_init_signal_r                                    /usr/share/gcc-arm-none-eabi-10.3-2021.10/bin/../lib/gcc/arm-none-eabi/10.3.1/../../../../arm-none-eabi/lib/thumb/v7e-m/nofp/libc_nano.a(lib_a-signal.o)
_kill                                             /usr/share/gcc-arm-none-eabi-10.3-2021.10/bin/../lib/gcc/arm-none-eabi/10.3.1/../../../../arm-none-eabi/lib/thumb/v7e-m/nofp/libnosys.a(kill.o)
                                                  /usr/share/gcc-arm-none-eabi-10.3-2021.10/bin/../lib/gcc/arm-none-eabi/10.3.1/../../../../arm-none-eabi/lib/thumb/v7e-m/nofp/libc_nano.a(lib_a-signalr.o)
_kill_r                                           /usr/share/gcc-arm-none-eabi-10.3-2021.10/bin/../lib/gcc/arm-none-eabi/10.3.1/../../../../arm-none-eabi/lib/thumb/v7e-m/nofp/libc_nano.a(lib_a-signalr.o)
                                                  /usr/share/gcc-arm-none-eabi-10.3-2021.10/bin/../lib/gcc/arm-none-eabi/10.3.1/../../../../arm-none-eabi/lib/thumb/v7e-m/nofp/libc_nano.a(lib_a-signal.o)
_mainCRTStartup                                   /usr/share/gcc-arm-none-eabi-10.3-2021.10/bin/../lib/gcc/arm-none-eabi/10.3.1/../../../../arm-none-eabi/lib/thumb/v7e-m/nofp/crt0.o
_malloc_r                                         /usr/share/gcc-arm-none-eabi-10.3-2021.10/bin/../lib/gcc/arm-none-eabi/10.3.1/../../../../arm-none-eabi/lib/thumb/v7e-m/nofp/libc_nano.a(lib_a-nano-mallocr.o)
                                                  /usr/share/gcc-arm-none-eabi-10.3-2021.10/bin/../lib/gcc/arm-none-eabi/10.3.1/../../../../arm-none-eabi/lib/thumb/v7e-m/nofp/libc_nano.a(lib_a-signal.o)
_raise_r                                          /usr/share/gcc-arm-none-eabi-10.3-2021.10/bin/../lib/gcc/arm-none-eabi/10.3.1/../../../../arm-none-eabi/lib/thumb/v7e-m/nofp/libc_nano.a(lib_a-signal.o)
_reclaim_reent                                    /usr/share/gcc-arm-none-eabi-10.3-2021.10/bin/../lib/gcc/arm-none-eabi/10.3.1/../../../../arm-none-eabi/lib/thumb/v7e-m/nofp/libc_nano.a(lib_a-reent.o)
_sbrk                                             /usr/share/gcc-arm-none-eabi-10.3-2021.10/bin/../lib/gcc/arm-none-eabi/10.3.1/../../../../arm-none-eabi/lib/thumb/v7e-m/nofp/libnosys.a(sbrk.o)
                                                  /usr/share/gcc-arm-none-eabi-10.3-2021.10/bin/../lib/gcc/arm-none-eabi/10.3.1/../../../../arm-none-eabi/lib/thumb/v7e-m/nofp/libc_nano.a(lib_a-sbrkr.o)
_sbrk_r                                           /usr/share/gcc-arm-none-eabi-10.3-2021.10/bin/../lib/gcc/arm-none-eabi/10.3.1/../../../../arm-none-eabi/lib/thumb/v7e-m/nofp/libc_nano.a(lib_a-sbrkr.o)
                                                  /usr/share/gcc-arm-none-eabi-10.3-2021.10/bin/../lib/gcc/arm-none-eabi/10.3.1/../../../../arm-none-eabi/lib/thumb/v7e-m/nofp/libc_nano.a(lib_a-nano-mallocr.o)
_sbss                                             CMakeFiles/bootloader.out.dir/stm32f4/startup/startup_stm32f40_41xxx.s.o
_sdata                                            CMakeFiles/bootloader.out.dir/stm32f4/startup/startup_stm32f40_41xxx.s.o
_sidata                                           CMakeFiles/bootloader.out.dir/stm32f4/startup/startup_stm32f40_41xxx.s.o
_signal_r                                         /usr/share/gcc-arm-none-eabi-10.3-2021.10/bin/../lib/gcc/arm-none-eabi/10.3.1/../../../../arm-none-eabi/lib/thumb/v7e-m/nofp/libc_nano.a(lib_a-signal.o)
_stack_init                                       /usr/share/gcc-arm-none-eabi-10.3-2021.10/bin/../lib/gcc/arm-none-eabi/10.3.1/../../../../arm-none-eabi/lib/thumb/v7e-m/nofp/crt0.o
_start                                            /usr/share/gcc-arm-none-eabi-10.3-2021.10/bin/../lib/gcc/arm-none-eabi/10.3.1/../../../../arm-none-eabi/lib/thumb/v7e-m/nofp/crt0.o
abort                                             /usr/share/gcc-arm-none-eabi-10.3-2021.10/bin/../lib/gcc/arm-none-eabi/10.3.1/../../../../arm-none-eabi/lib/thumb/v7e-m/nofp/libc_nano.a(lib_a-abort.o)
                                                  /usr/share/gcc-arm-none-eabi-10.3-2021.10/bin/../lib/gcc/arm-none-eabi/10.3.1/thumb/v7e-m/nofp/libgcc.a(pr-support.o)
                                                  /usr/share/gcc-arm-none-eabi-10.3-2021.10/bin/../lib/gcc/arm-none-eabi/10.3.1/thumb/v7e-m/nofp/libgcc.a(unwind-arm.o)
atexit                                            /usr/share/gcc-arm-none-eabi-10.3-2021.10/bin/../lib/gcc/arm-none-eabi/10.3.1/../../../../arm-none-eabi/lib/thumb/v7e-m/nofp/crt0.o
bootloader_jump_to_user_application()             CMakeFiles/bootloader.out.dir/src/main.cpp.o
bootloader_uart_read_data()                       CMakeFiles/bootloader.out.dir/src/main.cpp.o
cleanup_glue                                      /usr/share/gcc-arm-none-eabi-10.3-2021.10/bin/../lib/gcc/arm-none-eabi/10.3.1/../../../../arm-none-eabi/lib/thumb/v7e-m/nofp/libc_nano.a(lib_a-reent.o)
custom_libraries::USART::USART(USART_TypeDef*, GPIO_TypeDef*, unsigned char, unsigned char, int) CMakeFiles/bootloader.out.dir/stm32f4/stm32f407/src/peripherals/usart/usart.cpp.o
custom_libraries::USART::USART(USART_TypeDef*, GPIO_TypeDef*, unsigned char, unsigned char, int) CMakeFiles/bootloader.out.dir/stm32f4/stm32f407/src/peripherals/usart/usart.cpp.o
                                                  CMakeFiles/bootloader.out.dir/src/main.cpp.o
custom_libraries::USART::flush_buffer()           CMakeFiles/bootloader.out.dir/stm32f4/stm32f407/src/peripherals/usart/usart.cpp.o
custom_libraries::USART::initialize()             CMakeFiles/bootloader.out.dir/stm32f4/stm32f407/src/peripherals/usart/usart.cpp.o
                                                  CMakeFiles/bootloader.out.dir/src/main.cpp.o
custom_libraries::USART::print(char*)             CMakeFiles/bootloader.out.dir/stm32f4/stm32f407/src/peripherals/usart/usart.cpp.o
custom_libraries::USART::print_char(char)         CMakeFiles/bootloader.out.dir/stm32f4/stm32f407/src/peripherals/usart/usart.cpp.o
custom_libraries::USART::println(char*)           CMakeFiles/bootloader.out.dir/stm32f4/stm32f407/src/peripherals/usart/usart.cpp.o
                                                  CMakeFiles/bootloader.out.dir/src/main.cpp.o
custom_libraries::USART::read_char()              CMakeFiles/bootloader.out.dir/stm32f4/stm32f407/src/peripherals/usart/usart.cpp.o
custom_libraries::USART::read_string()            CMakeFiles/bootloader.out.dir/stm32f4/stm32f407/src/peripherals/usart/usart.cpp.o
custom_libraries::USART::~USART()                 CMakeFiles/bootloader.out.dir/stm32f4/stm32f407/src/peripherals/usart/usart.cpp.o
                                                  CMakeFiles/bootloader.out.dir/src/main.cpp.o
custom_libraries::USART::~USART()                 CMakeFiles/bootloader.out.dir/stm32f4/stm32f407/src/peripherals/usart/usart.cpp.o
custom_libraries::_GPIO::_GPIO(GPIO_TypeDef*, unsigned char) CMakeFiles/bootloader.out.dir/stm32f4/stm32f407/src/peripherals/gpio/gpio.cpp.o
                                                  CMakeFiles/bootloader.out.dir/src/main.cpp.o
custom_libraries::_GPIO::_GPIO(GPIO_TypeDef*, unsigned char) CMakeFiles/bootloader.out.dir/stm32f4/stm32f407/src/peripherals/gpio/gpio.cpp.o
custom_libraries::_GPIO::digital_read() const     CMakeFiles/bootloader.out.dir/stm32f4/stm32f407/src/peripherals/gpio/gpio.cpp.o
                                                  CMakeFiles/bootloader.out.dir/src/main.cpp.o
custom_libraries::_GPIO::digital_write(bool)      CMakeFiles/bootloader.out.dir/stm32f4/stm32f407/src/peripherals/gpio/gpio.cpp.o
custom_libraries::_GPIO::input_state(custom_libraries::State) CMakeFiles/bootloader.out.dir/stm32f4/stm32f407/src/peripherals/gpio/gpio.cpp.o
                                                  CMakeFiles/bootloader.out.dir/src/main.cpp.o
custom_libraries::_GPIO::output_settings(custom_libraries::OUTPUT_Type, custom_libraries::OUTPUT_Speed) CMakeFiles/bootloader.out.dir/stm32f4/stm32f407/src/peripherals/gpio/gpio.cpp.o
custom_libraries::_GPIO::pin_mode(custom_libraries::Mode) CMakeFiles/bootloader.out.dir/stm32f4/stm32f407/src/peripherals/gpio/gpio.cpp.o
                                                  CMakeFiles/bootloader.out.dir/src/main.cpp.o
custom_libraries::_GPIO::toggle()                 CMakeFiles/bootloader.out.dir/stm32f4/stm32f407/src/peripherals/gpio/gpio.cpp.o
custom_libraries::_GPIO::~_GPIO()                 CMakeFiles/bootloader.out.dir/stm32f4/stm32f407/src/peripherals/gpio/gpio.cpp.o
                                                  CMakeFiles/bootloader.out.dir/src/main.cpp.o
custom_libraries::_GPIO::~_GPIO()                 CMakeFiles/bootloader.out.dir/stm32f4/stm32f407/src/peripherals/gpio/gpio.cpp.o
custom_libraries::clock_config::clock_config()    CMakeFiles/bootloader.out.dir/stm32f4/stm32f407/src/peripherals/sys_clock/clock_config.cpp.o
                                                  CMakeFiles/bootloader.out.dir/src/main.cpp.o
custom_libraries::clock_config::clock_config()    CMakeFiles/bootloader.out.dir/stm32f4/stm32f407/src/peripherals/sys_clock/clock_config.cpp.o
custom_libraries::clock_config::initialize()      CMakeFiles/bootloader.out.dir/stm32f4/stm32f407/src/peripherals/sys_clock/clock_config.cpp.o
                                                  CMakeFiles/bootloader.out.dir/src/main.cpp.o
custom_libraries::clock_config::~clock_config()   CMakeFiles/bootloader.out.dir/stm32f4/stm32f407/src/peripherals/sys_clock/clock_config.cpp.o
custom_libraries::clock_config::~clock_config()   CMakeFiles/bootloader.out.dir/stm32f4/stm32f407/src/peripherals/sys_clock/clock_config.cpp.o
                                                  CMakeFiles/bootloader.out.dir/src/main.cpp.o
end                                               /usr/share/gcc-arm-none-eabi-10.3-2021.10/bin/../lib/gcc/arm-none-eabi/10.3.1/../../../../arm-none-eabi/lib/thumb/v7e-m/nofp/libnosys.a(sbrk.o)
errno                                             /usr/share/gcc-arm-none-eabi-10.3-2021.10/bin/../lib/gcc/arm-none-eabi/10.3.1/../../../../arm-none-eabi/lib/thumb/v7e-m/nofp/libc_nano.a(lib_a-reent.o)
                                                  /usr/share/gcc-arm-none-eabi-10.3-2021.10/bin/../lib/gcc/arm-none-eabi/10.3.1/../../../../arm-none-eabi/lib/thumb/v7e-m/nofp/libnosys.a(kill.o)
                                                  /usr/share/gcc-arm-none-eabi-10.3-2021.10/bin/../lib/gcc/arm-none-eabi/10.3.1/../../../../arm-none-eabi/lib/thumb/v7e-m/nofp/libnosys.a(getpid.o)
                                                  /usr/share/gcc-arm-none-eabi-10.3-2021.10/bin/../lib/gcc/arm-none-eabi/10.3.1/../../../../arm-none-eabi/lib/thumb/v7e-m/nofp/libc_nano.a(lib_a-sbrkr.o)
                                                  /usr/share/gcc-arm-none-eabi-10.3-2021.10/bin/../lib/gcc/arm-none-eabi/10.3.1/../../../../arm-none-eabi/lib/thumb/v7e-m/nofp/libc_nano.a(lib_a-signalr.o)
exit                                              /usr/share/gcc-arm-none-eabi-10.3-2021.10/bin/../lib/gcc/arm-none-eabi/10.3.1/../../../../arm-none-eabi/lib/thumb/v7e-m/nofp/libc_nano.a(lib_a-exit.o)
                                                  /usr/share/gcc-arm-none-eabi-10.3-2021.10/bin/../lib/gcc/arm-none-eabi/10.3.1/../../../../arm-none-eabi/lib/thumb/v7e-m/nofp/crt0.o
g_pfnVectors                                      CMakeFiles/bootloader.out.dir/stm32f4/startup/startup_stm32f40_41xxx.s.o
hardware_init_hook                                /usr/share/gcc-arm-none-eabi-10.3-2021.10/bin/../lib/gcc/arm-none-eabi/10.3.1/../../../../arm-none-eabi/lib/thumb/v7e-m/nofp/crt0.o
main                                              CMakeFiles/bootloader.out.dir/src/main.cpp.o
                                                  CMakeFiles/bootloader.out.dir/stm32f4/startup/startup_stm32f40_41xxx.s.o
                                                  /usr/share/gcc-arm-none-eabi-10.3-2021.10/bin/../lib/gcc/arm-none-eabi/10.3.1/../../../../arm-none-eabi/lib/thumb/v7e-m/nofp/crt0.o
memcpy                                            /usr/share/gcc-arm-none-eabi-10.3-2021.10/bin/../lib/gcc/arm-none-eabi/10.3.1/../../../../arm-none-eabi/lib/thumb/v7e-m/nofp/libc_nano.a(lib_a-memcpy-stub.o)
                                                  /usr/share/gcc-arm-none-eabi-10.3-2021.10/bin/../lib/gcc/arm-none-eabi/10.3.1/thumb/v7e-m/nofp/libgcc.a(unwind-arm.o)
memset                                            /usr/share/gcc-arm-none-eabi-10.3-2021.10/bin/../lib/gcc/arm-none-eabi/10.3.1/../../../../arm-none-eabi/lib/thumb/v7e-m/nofp/libc_nano.a(lib_a-memset.o)
                                                  /usr/share/gcc-arm-none-eabi-10.3-2021.10/bin/../lib/gcc/arm-none-eabi/10.3.1/../../../../arm-none-eabi/lib/thumb/v7e-m/nofp/crt0.o
raise                                             /usr/share/gcc-arm-none-eabi-10.3-2021.10/bin/../lib/gcc/arm-none-eabi/10.3.1/../../../../arm-none-eabi/lib/thumb/v7e-m/nofp/libc_nano.a(lib_a-signal.o)
                                                  /usr/share/gcc-arm-none-eabi-10.3-2021.10/bin/../lib/gcc/arm-none-eabi/10.3.1/../../../../arm-none-eabi/lib/thumb/v7e-m/nofp/libc_nano.a(lib_a-abort.o)
restore_core_regs                                 /usr/share/gcc-arm-none-eabi-10.3-2021.10/bin/../lib/gcc/arm-none-eabi/10.3.1/thumb/v7e-m/nofp/libgcc.a(libunwind.o)
                                                  /usr/share/gcc-arm-none-eabi-10.3-2021.10/bin/../lib/gcc/arm-none-eabi/10.3.1/thumb/v7e-m/nofp/libgcc.a(unwind-arm.o)
serial_port                                       CMakeFiles/bootloader.out.dir/src/main.cpp.o
signal                                            /usr/share/gcc-arm-none-eabi-10.3-2021.10/bin/../lib/gcc/arm-none-eabi/10.3.1/../../../../arm-none-eabi/lib/thumb/v7e-m/nofp/libc_nano.a(lib_a-signal.o)
software_init_hook                                /usr/share/gcc-arm-none-eabi-10.3-2021.10/bin/../lib/gcc/arm-none-eabi/10.3.1/../../../../arm-none-eabi/lib/thumb/v7e-m/nofp/crt0.o
system_clock                                      CMakeFiles/bootloader.out.dir/src/main.cpp.o
user_button                                       CMakeFiles/bootloader.out.dir/src/main.cpp.o
